
timer_pwm.elf:     file format elf32-littlearm

Sections:
Idx Name          Size      VMA       LMA       File off  Algn
  0 .text         00002584  00000000  00000000  00010000  2**2
                  CONTENTS, ALLOC, LOAD, READONLY, CODE
  1 .relocate     00000020  20000000  00002584  00020000  2**2
                  CONTENTS, ALLOC, LOAD, DATA
  2 .bss          00000224  20000020  000025a4  00020020  2**2
                  ALLOC
  3 .stack        00000404  20000244  000027c8  00020020  2**0
                  ALLOC
  4 .ARM.attributes 0000002a  00000000  00000000  00020020  2**0
                  CONTENTS, READONLY
  5 .comment      00000059  00000000  00000000  0002004a  2**0
                  CONTENTS, READONLY
  6 .debug_info   000564a0  00000000  00000000  000200a3  2**0
                  CONTENTS, READONLY, DEBUGGING
  7 .debug_abbrev 00005f9a  00000000  00000000  00076543  2**0
                  CONTENTS, READONLY, DEBUGGING
  8 .debug_loc    00006b91  00000000  00000000  0007c4dd  2**0
                  CONTENTS, READONLY, DEBUGGING
  9 .debug_aranges 00000848  00000000  00000000  0008306e  2**0
                  CONTENTS, READONLY, DEBUGGING
 10 .debug_ranges 00000db8  00000000  00000000  000838b6  2**0
                  CONTENTS, READONLY, DEBUGGING
 11 .debug_macro  0001b427  00000000  00000000  0008466e  2**0
                  CONTENTS, READONLY, DEBUGGING
 12 .debug_line   00015499  00000000  00000000  0009fa95  2**0
                  CONTENTS, READONLY, DEBUGGING
 13 .debug_str    0007d130  00000000  00000000  000b4f2e  2**0
                  CONTENTS, READONLY, DEBUGGING
 14 .debug_frame  000013f0  00000000  00000000  00132060  2**2
                  CONTENTS, READONLY, DEBUGGING

Disassembly of section .text:

00000000 <exception_table>:
       0:	48 06 00 20 b5 1e 00 00 b3 1e 00 00 b3 1e 00 00     H.. ............
	...
      2c:	b3 1e 00 00 00 00 00 00 00 00 00 00 b3 1e 00 00     ................
      3c:	b3 1e 00 00 b3 1e 00 00 b3 1e 00 00 b3 1e 00 00     ................
      4c:	b3 1e 00 00 f1 04 00 00 b3 1e 00 00 b3 1e 00 00     ................
      5c:	b3 1e 00 00 b3 1e 00 00 29 14 00 00 39 14 00 00     ........)...9...
      6c:	49 14 00 00 7d 1b 00 00 09 1c 00 00 13 1c 00 00     I...}...........
      7c:	b3 1e 00 00 b3 1e 00 00 b3 1e 00 00 b3 1e 00 00     ................

0000008c <__do_global_dtors_aux>:
      8c:	b510      	push	{r4, lr}
      8e:	4c06      	ldr	r4, [pc, #24]	; (a8 <__do_global_dtors_aux+0x1c>)
      90:	7823      	ldrb	r3, [r4, #0]
      92:	2b00      	cmp	r3, #0
      94:	d107      	bne.n	a6 <__do_global_dtors_aux+0x1a>
      96:	4b05      	ldr	r3, [pc, #20]	; (ac <__do_global_dtors_aux+0x20>)
      98:	2b00      	cmp	r3, #0
      9a:	d002      	beq.n	a2 <__do_global_dtors_aux+0x16>
      9c:	4804      	ldr	r0, [pc, #16]	; (b0 <__do_global_dtors_aux+0x24>)
      9e:	e000      	b.n	a2 <__do_global_dtors_aux+0x16>
      a0:	bf00      	nop
      a2:	2301      	movs	r3, #1
      a4:	7023      	strb	r3, [r4, #0]
      a6:	bd10      	pop	{r4, pc}
      a8:	20000020 	.word	0x20000020
      ac:	00000000 	.word	0x00000000
      b0:	00002584 	.word	0x00002584

000000b4 <frame_dummy>:
      b4:	4b08      	ldr	r3, [pc, #32]	; (d8 <frame_dummy+0x24>)
      b6:	b510      	push	{r4, lr}
      b8:	2b00      	cmp	r3, #0
      ba:	d003      	beq.n	c4 <frame_dummy+0x10>
      bc:	4907      	ldr	r1, [pc, #28]	; (dc <frame_dummy+0x28>)
      be:	4808      	ldr	r0, [pc, #32]	; (e0 <frame_dummy+0x2c>)
      c0:	e000      	b.n	c4 <frame_dummy+0x10>
      c2:	bf00      	nop
      c4:	4807      	ldr	r0, [pc, #28]	; (e4 <frame_dummy+0x30>)
      c6:	6803      	ldr	r3, [r0, #0]
      c8:	2b00      	cmp	r3, #0
      ca:	d100      	bne.n	ce <frame_dummy+0x1a>
      cc:	bd10      	pop	{r4, pc}
      ce:	4b06      	ldr	r3, [pc, #24]	; (e8 <frame_dummy+0x34>)
      d0:	2b00      	cmp	r3, #0
      d2:	d0fb      	beq.n	cc <frame_dummy+0x18>
      d4:	4798      	blx	r3
      d6:	e7f9      	b.n	cc <frame_dummy+0x18>
      d8:	00000000 	.word	0x00000000
      dc:	20000024 	.word	0x20000024
      e0:	00002584 	.word	0x00002584
      e4:	00002584 	.word	0x00002584
      e8:	00000000 	.word	0x00000000

000000ec <adc_get_status.isra.1>:
	Assert(module_inst);
	Assert(module_inst->hw);

	Adc *const adc_module = module_inst->hw;

	uint32_t int_flags = adc_module->INTFLAG.reg;
      ec:	7e03      	ldrb	r3, [r0, #24]
      ee:	2001      	movs	r0, #1
      f0:	b2db      	uxtb	r3, r3
      f2:	4018      	ands	r0, r3
      f4:	2202      	movs	r2, #2
	if (int_flags & ADC_INTFLAG_RESRDY) {
		status_flags |= ADC_STATUS_RESULT_READY;
	}

	/* Check for ADC Window Match */
	if (int_flags & ADC_INTFLAG_WINMON) {
      f6:	0759      	lsls	r1, r3, #29
      f8:	d500      	bpl.n	fc <adc_get_status.isra.1+0x10>
		status_flags |= ADC_STATUS_WINDOW;
      fa:	4310      	orrs	r0, r2
	}

	/* Check for ADC Overrun */
	if (int_flags & ADC_INTFLAG_OVERRUN) {
      fc:	4213      	tst	r3, r2
      fe:	d001      	beq.n	104 <adc_get_status.isra.1+0x18>
		status_flags |= ADC_STATUS_OVERRUN;
     100:	2304      	movs	r3, #4
     102:	4318      	orrs	r0, r3
	}

	return status_flags;
}
     104:	4770      	bx	lr
	...

00000108 <configure_adc>:
#include <adc_sample.h>

uint16_t adc_result;

void configure_adc(void)
{
     108:	b510      	push	{r4, lr}
     10a:	b08c      	sub	sp, #48	; 0x30
	struct adc_config config_adc;
	adc_get_config_defaults(&config_adc);
     10c:	4668      	mov	r0, sp
     10e:	f000 f865 	bl	1dc <adc_get_config_defaults>
	adc_init(&adc_instance, ADC, &config_adc);
     112:	4c0c      	ldr	r4, [pc, #48]	; (144 <configure_adc+0x3c>)
     114:	466a      	mov	r2, sp
     116:	490c      	ldr	r1, [pc, #48]	; (148 <configure_adc+0x40>)
     118:	0020      	movs	r0, r4
     11a:	f000 f881 	bl	220 <adc_init>
		struct adc_module *const module_inst)
{
	Assert(module_inst);
	Assert(module_inst->hw);

	Adc *const adc_module = module_inst->hw;
     11e:	6823      	ldr	r3, [r4, #0]
	/* Sanity check arguments */
	Assert(module_inst);

	Adc *const adc_module = module_inst->hw;

	if (adc_module->STATUS.reg & ADC_STATUS_SYNCBUSY) {
     120:	7e5a      	ldrb	r2, [r3, #25]
     122:	b252      	sxtb	r2, r2
     124:	2a00      	cmp	r2, #0
     126:	dbfb      	blt.n	120 <configure_adc+0x18>
		system_interrupt_enable(SYSTEM_INTERRUPT_MODULE_ADC);
#   endif
#endif

	/* Disbale interrupt */
	adc_module->INTENCLR.reg = ADC_INTENCLR_MASK;
     128:	220f      	movs	r2, #15
     12a:	759a      	strb	r2, [r3, #22]
	/* Clear interrupt flag */
	adc_module->INTFLAG.reg = ADC_INTFLAG_MASK;
     12c:	761a      	strb	r2, [r3, #24]

	adc_module->CTRLA.reg |= ADC_CTRLA_ENABLE;
     12e:	7819      	ldrb	r1, [r3, #0]
     130:	3a0d      	subs	r2, #13
     132:	430a      	orrs	r2, r1
     134:	701a      	strb	r2, [r3, #0]
     136:	6822      	ldr	r2, [r4, #0]
     138:	7e53      	ldrb	r3, [r2, #25]
     13a:	b25b      	sxtb	r3, r3
     13c:	2b00      	cmp	r3, #0
     13e:	dbfb      	blt.n	138 <configure_adc+0x30>
	adc_enable(&adc_instance);
}
     140:	b00c      	add	sp, #48	; 0x30
     142:	bd10      	pop	{r4, pc}
     144:	20000098 	.word	0x20000098
     148:	42002000 	.word	0x42002000

0000014c <sample_adc>:


void sample_adc(void){
     14c:	b570      	push	{r4, r5, r6, lr}
		struct adc_module *const module_inst)
{
	Assert(module_inst);
	Assert(module_inst->hw);

	Adc *const adc_module = module_inst->hw;
     14e:	4c13      	ldr	r4, [pc, #76]	; (19c <sample_adc+0x50>)
     150:	6823      	ldr	r3, [r4, #0]
     152:	7e5a      	ldrb	r2, [r3, #25]
     154:	b252      	sxtb	r2, r2
     156:	2a00      	cmp	r2, #0
     158:	dbfb      	blt.n	152 <sample_adc+0x6>

	while (adc_is_syncing(module_inst)) {
		/* Wait for synchronization */
	}

	adc_module->SWTRIG.reg |= ADC_SWTRIG_START;
     15a:	2202      	movs	r2, #2
     15c:	7b19      	ldrb	r1, [r3, #12]
     15e:	430a      	orrs	r2, r1
     160:	731a      	strb	r2, [r3, #12]
     162:	7e5a      	ldrb	r2, [r3, #25]
     164:	b252      	sxtb	r2, r2
     166:	2a00      	cmp	r2, #0
     168:	dbfb      	blt.n	162 <sample_adc+0x16>
{
	Assert(module_inst);
	Assert(module_inst->hw);
	Assert(result);

	if (!(adc_get_status(module_inst) & ADC_STATUS_RESULT_READY)) {
     16a:	2501      	movs	r5, #1
     16c:	6820      	ldr	r0, [r4, #0]
     16e:	f7ff ffbd 	bl	ec <adc_get_status.isra.1>
     172:	4228      	tst	r0, r5
     174:	d0fa      	beq.n	16c <sample_adc+0x20>
		/* Result not ready */
		return STATUS_BUSY;
	}

	Adc *const adc_module = module_inst->hw;
     176:	6820      	ldr	r0, [r4, #0]
     178:	7e43      	ldrb	r3, [r0, #25]
     17a:	b25b      	sxtb	r3, r3
     17c:	2b00      	cmp	r3, #0
     17e:	dbfb      	blt.n	178 <sample_adc+0x2c>
		/* Wait for synchronization */
	}
#endif

	/* Get ADC result */
	*result = adc_module->RESULT.reg;
     180:	8b42      	ldrh	r2, [r0, #26]
     182:	4b07      	ldr	r3, [pc, #28]	; (1a0 <sample_adc+0x54>)
     184:	801a      	strh	r2, [r3, #0]
	adc_module->INTFLAG.reg = int_flags;
     186:	2301      	movs	r3, #1
     188:	7603      	strb	r3, [r0, #24]

	/* Reset ready flag */
	adc_clear_status(module_inst, ADC_STATUS_RESULT_READY);

	if (adc_get_status(module_inst) & ADC_STATUS_OVERRUN) {
     18a:	f7ff ffaf 	bl	ec <adc_get_status.isra.1>
     18e:	0743      	lsls	r3, r0, #29
     190:	d502      	bpl.n	198 <sample_adc+0x4c>
	adc_module->INTFLAG.reg = int_flags;
     192:	2202      	movs	r2, #2
     194:	6823      	ldr	r3, [r4, #0]
     196:	761a      	strb	r2, [r3, #24]
	adc_start_conversion(&adc_instance);
	do {
	} while (adc_read(&adc_instance, &adc_result) == STATUS_BUSY);
     198:	bd70      	pop	{r4, r5, r6, pc}
     19a:	46c0      	nop			; (mov r8, r8)
     19c:	20000098 	.word	0x20000098
     1a0:	20000094 	.word	0x20000094

000001a4 <_adc_configure_ain_pin>:
* the ADC access to the analog signal
*
* \param [in] pin AINxx pin to configure
*/
static inline void _adc_configure_ain_pin(uint32_t pin)
{
     1a4:	b530      	push	{r4, r5, lr}
     1a6:	b097      	sub	sp, #92	; 0x5c
#define PIN_INVALID_ADC_AIN    0xFFFFUL

	/* Pinmapping table for AINxx -> GPIO pin number */
	const uint32_t pinmapping[] = {
     1a8:	ad02      	add	r5, sp, #8
{
     1aa:	0004      	movs	r4, r0
	const uint32_t pinmapping[] = {
     1ac:	2250      	movs	r2, #80	; 0x50
     1ae:	490a      	ldr	r1, [pc, #40]	; (1d8 <_adc_configure_ain_pin+0x34>)
     1b0:	0028      	movs	r0, r5
     1b2:	f002 f971 	bl	2498 <memcpy>
#endif
		};

	uint32_t pin_map_result = PIN_INVALID_ADC_AIN;

	if (pin <= ADC_EXTCHANNEL_MSB) {
     1b6:	2c09      	cmp	r4, #9
     1b8:	d80b      	bhi.n	1d2 <_adc_configure_ain_pin+0x2e>
	/* Sanity check arguments */
	Assert(config);

	/* Default configuration values */
	config->mux_position = SYSTEM_PINMUX_GPIO;
	config->direction    = SYSTEM_PINMUX_PIN_DIR_INPUT;
     1ba:	2300      	movs	r3, #0
		pin_map_result = pinmapping[pin >> ADC_INPUTCTRL_MUXPOS_Pos];
     1bc:	00a4      	lsls	r4, r4, #2
     1be:	5960      	ldr	r0, [r4, r5]
     1c0:	a901      	add	r1, sp, #4
     1c2:	704b      	strb	r3, [r1, #1]
	config->input_pull   = SYSTEM_PINMUX_PIN_PULL_UP;
	config->powersave    = false;
     1c4:	70cb      	strb	r3, [r1, #3]

		struct system_pinmux_config config;
		system_pinmux_get_config_defaults(&config);

		/* Analog functions are all on MUX setting B */
		config.input_pull   = SYSTEM_PINMUX_PIN_PULL_NONE;
     1c6:	708b      	strb	r3, [r1, #2]
		config.mux_position = 1;

		system_pinmux_pin_set_config(pin_map_result, &config);
     1c8:	b2c0      	uxtb	r0, r0
		config.mux_position = 1;
     1ca:	3301      	adds	r3, #1
     1cc:	700b      	strb	r3, [r1, #0]
		system_pinmux_pin_set_config(pin_map_result, &config);
     1ce:	f001 fc67 	bl	1aa0 <system_pinmux_pin_set_config>
	}
}
     1d2:	b017      	add	sp, #92	; 0x5c
     1d4:	bd30      	pop	{r4, r5, pc}
     1d6:	46c0      	nop			; (mov r8, r8)
     1d8:	000024ac 	.word	0x000024ac

000001dc <adc_get_config_defaults>:
	config->negative_input                = ADC_NEGATIVE_INPUT_GND ;
     1dc:	22c0      	movs	r2, #192	; 0xc0
     1de:	0152      	lsls	r2, r2, #5
     1e0:	81c2      	strh	r2, [r0, #14]
	config->event_action                  = ADC_EVENT_ACTION_DISABLED;
     1e2:	0002      	movs	r2, r0
	config->clock_source                  = GCLK_GENERATOR_0;
     1e4:	2300      	movs	r3, #0
	config->event_action                  = ADC_EVENT_ACTION_DISABLED;
     1e6:	322a      	adds	r2, #42	; 0x2a
	config->clock_source                  = GCLK_GENERATOR_0;
     1e8:	7003      	strb	r3, [r0, #0]
	config->reference                     = ADC_REFERENCE_INT1V;
     1ea:	7043      	strb	r3, [r0, #1]
	config->clock_prescaler               = ADC_CLOCK_PRESCALER_DIV4;
     1ec:	8043      	strh	r3, [r0, #2]
	config->resolution                    = ADC_RESOLUTION_12BIT;
     1ee:	7103      	strb	r3, [r0, #4]
	config->window.window_mode            = ADC_WINDOW_MODE_DISABLE;
     1f0:	7603      	strb	r3, [r0, #24]
	config->window.window_upper_value     = 0;
     1f2:	6203      	str	r3, [r0, #32]
	config->window.window_lower_value     = 0;
     1f4:	61c3      	str	r3, [r0, #28]
	config->gain_factor                   = ADC_GAIN_FACTOR_1X;
     1f6:	6083      	str	r3, [r0, #8]
 	config->positive_input                = ADC_POSITIVE_INPUT_PIN0 ;
     1f8:	7303      	strb	r3, [r0, #12]
	config->accumulate_samples            = ADC_ACCUMULATE_DISABLE;
     1fa:	7403      	strb	r3, [r0, #16]
	config->divide_result                 = ADC_DIVIDE_RESULT_DISABLE;
     1fc:	7443      	strb	r3, [r0, #17]
	config->left_adjust                   = false;
     1fe:	7483      	strb	r3, [r0, #18]
	config->differential_mode             = false;
     200:	74c3      	strb	r3, [r0, #19]
	config->freerunning                   = false;
     202:	7503      	strb	r3, [r0, #20]
	config->event_action                  = ADC_EVENT_ACTION_DISABLED;
     204:	7013      	strb	r3, [r2, #0]
	config->correction.correction_enable  = false;
     206:	1d42      	adds	r2, r0, #5
	config->run_in_standby                = false;
     208:	7543      	strb	r3, [r0, #21]
	config->reference_compensation_enable = false;
     20a:	7583      	strb	r3, [r0, #22]
	config->correction.correction_enable  = false;
     20c:	77d3      	strb	r3, [r2, #31]
	config->correction.gain_correction    = ADC_GAINCORR_RESETVALUE;
     20e:	84c3      	strh	r3, [r0, #38]	; 0x26
	config->correction.offset_correction  = ADC_OFFSETCORR_RESETVALUE;
     210:	8503      	strh	r3, [r0, #40]	; 0x28
	config->sample_length                 = 0;
     212:	75c3      	strb	r3, [r0, #23]
	config->pin_scan.offset_start_scan    = 0;
     214:	3226      	adds	r2, #38	; 0x26
	config->pin_scan.inputs_to_scan       = 0;
     216:	302c      	adds	r0, #44	; 0x2c
	config->pin_scan.offset_start_scan    = 0;
     218:	7013      	strb	r3, [r2, #0]
	config->pin_scan.inputs_to_scan       = 0;
     21a:	7003      	strb	r3, [r0, #0]
}
     21c:	4770      	bx	lr
	...

00000220 <adc_init>:
		case SYSTEM_CLOCK_APB_APBB:
			PM->APBBMASK.reg |= mask;
			break;

		case SYSTEM_CLOCK_APB_APBC:
			PM->APBCMASK.reg |= mask;
     220:	2380      	movs	r3, #128	; 0x80
 */
enum status_code adc_init(
		struct adc_module *const module_inst,
		Adc *hw,
		struct adc_config *config)
{
     222:	b5f0      	push	{r4, r5, r6, r7, lr}
     224:	0014      	movs	r4, r2
     226:	4aab      	ldr	r2, [pc, #684]	; (4d4 <STACK_SIZE+0xd4>)
	Assert(module_inst);
	Assert(hw);
	Assert(config);

	/* Associate the software module instance with the hardware module */
	module_inst->hw = hw;
     228:	6001      	str	r1, [r0, #0]
{
     22a:	0007      	movs	r7, r0
     22c:	6a10      	ldr	r0, [r2, #32]
     22e:	005b      	lsls	r3, r3, #1
     230:	4303      	orrs	r3, r0
     232:	6213      	str	r3, [r2, #32]

	/* Turn on the digital interface clock */
	system_apb_clock_set_mask(SYSTEM_CLOCK_APB_APBC, PM_APBCMASK_ADC);

	if (hw->CTRLA.reg & ADC_CTRLA_SWRST) {
     234:	780b      	ldrb	r3, [r1, #0]
{
     236:	b087      	sub	sp, #28
		/* We are in the middle of a reset. Abort. */
		return STATUS_BUSY;
     238:	2005      	movs	r0, #5
	if (hw->CTRLA.reg & ADC_CTRLA_SWRST) {
     23a:	07db      	lsls	r3, r3, #31
     23c:	d500      	bpl.n	240 <adc_init+0x20>
     23e:	e0e5      	b.n	40c <STACK_SIZE+0xc>
	}

	if (hw->CTRLA.reg & ADC_CTRLA_ENABLE) {
     240:	780b      	ldrb	r3, [r1, #0]
		/* Module must be disabled before initialization. Abort. */
		return STATUS_ERR_DENIED;
     242:	3017      	adds	r0, #23
	if (hw->CTRLA.reg & ADC_CTRLA_ENABLE) {
     244:	079b      	lsls	r3, r3, #30
     246:	d500      	bpl.n	24a <adc_init+0x2a>
     248:	e0e0      	b.n	40c <STACK_SIZE+0xc>
	}

	/* Store the selected reference for later use */
	module_inst->reference = config->reference;
     24a:	7863      	ldrb	r3, [r4, #1]
     24c:	713b      	strb	r3, [r7, #4]

	/* Make sure bandgap is enabled if requested by the config */
	if (module_inst->reference == ADC_REFERENCE_INT1V) {
     24e:	2b00      	cmp	r3, #0
     250:	d104      	bne.n	25c <adc_init+0x3c>
		case SYSTEM_VOLTAGE_REFERENCE_TEMPSENSE:
			SYSCTRL->VREF.reg |= SYSCTRL_VREF_TSEN;
			break;

		case SYSTEM_VOLTAGE_REFERENCE_BANDGAP:
			SYSCTRL->VREF.reg |= SYSCTRL_VREF_BGOUTEN;
     252:	4aa1      	ldr	r2, [pc, #644]	; (4d8 <STACK_SIZE+0xd8>)
     254:	3304      	adds	r3, #4
     256:	6c11      	ldr	r1, [r2, #64]	; 0x40
     258:	430b      	orrs	r3, r1
     25a:	6413      	str	r3, [r2, #64]	; 0x40
	gclk_chan_conf.source_generator = config->clock_source;
     25c:	7823      	ldrb	r3, [r4, #0]
     25e:	a905      	add	r1, sp, #20
	system_gclk_chan_set_config(ADC_GCLK_ID, &gclk_chan_conf);
     260:	2013      	movs	r0, #19
	gclk_chan_conf.source_generator = config->clock_source;
     262:	700b      	strb	r3, [r1, #0]
	Adc *const adc_module = module_inst->hw;
     264:	683d      	ldr	r5, [r7, #0]
	system_gclk_chan_set_config(ADC_GCLK_ID, &gclk_chan_conf);
     266:	f001 fbb9 	bl	19dc <system_gclk_chan_set_config>
	system_gclk_chan_enable(ADC_GCLK_ID);
     26a:	2013      	movs	r0, #19
     26c:	f001 fb7a 	bl	1964 <system_gclk_chan_enable>
	if (config->pin_scan.inputs_to_scan != 0) {
     270:	0023      	movs	r3, r4
     272:	332c      	adds	r3, #44	; 0x2c
     274:	9302      	str	r3, [sp, #8]
     276:	781b      	ldrb	r3, [r3, #0]
     278:	7b22      	ldrb	r2, [r4, #12]
     27a:	9201      	str	r2, [sp, #4]
     27c:	2b00      	cmp	r3, #0
     27e:	d033      	beq.n	2e8 <adc_init+0xc8>
		uint8_t offset = config->pin_scan.offset_start_scan;
     280:	0022      	movs	r2, r4
     282:	322b      	adds	r2, #43	; 0x2b
		uint8_t start_pin =
     284:	7816      	ldrb	r6, [r2, #0]
     286:	9a01      	ldr	r2, [sp, #4]
     288:	1996      	adds	r6, r2, r6
     28a:	b2f6      	uxtb	r6, r6
		uint8_t end_pin =
     28c:	199b      	adds	r3, r3, r6
     28e:	b2db      	uxtb	r3, r3
     290:	9303      	str	r3, [sp, #12]
     292:	9b01      	ldr	r3, [sp, #4]
     294:	1af0      	subs	r0, r6, r3
		while (start_pin < end_pin) {
     296:	9b03      	ldr	r3, [sp, #12]
     298:	b2c0      	uxtb	r0, r0
     29a:	42b3      	cmp	r3, r6
     29c:	d81b      	bhi.n	2d6 <adc_init+0xb6>
		_adc_configure_ain_pin(config->negative_input);
     29e:	89e0      	ldrh	r0, [r4, #14]
     2a0:	f7ff ff80 	bl	1a4 <_adc_configure_ain_pin>
	adc_module->CTRLA.reg = (config->run_in_standby << ADC_CTRLA_RUNSTDBY_Pos);
     2a4:	7d63      	ldrb	r3, [r4, #21]
     2a6:	009b      	lsls	r3, r3, #2
     2a8:	b2db      	uxtb	r3, r3
     2aa:	702b      	strb	r3, [r5, #0]
			(config->reference_compensation_enable << ADC_REFCTRL_REFCOMP_Pos) |
     2ac:	7da3      	ldrb	r3, [r4, #22]
     2ae:	7862      	ldrb	r2, [r4, #1]
     2b0:	01db      	lsls	r3, r3, #7
     2b2:	4313      	orrs	r3, r2
     2b4:	b2db      	uxtb	r3, r3
	adc_module->REFCTRL.reg =
     2b6:	706b      	strb	r3, [r5, #1]
	switch (config->resolution) {
     2b8:	7923      	ldrb	r3, [r4, #4]
     2ba:	2b30      	cmp	r3, #48	; 0x30
     2bc:	d100      	bne.n	2c0 <adc_init+0xa0>
     2be:	e0b2      	b.n	426 <STACK_SIZE+0x26>
     2c0:	d816      	bhi.n	2f0 <adc_init+0xd0>
     2c2:	2b10      	cmp	r3, #16
     2c4:	d100      	bne.n	2c8 <adc_init+0xa8>
     2c6:	e0ab      	b.n	420 <STACK_SIZE+0x20>
     2c8:	2b20      	cmp	r3, #32
     2ca:	d100      	bne.n	2ce <adc_init+0xae>
     2cc:	e0ab      	b.n	426 <STACK_SIZE+0x26>
     2ce:	2b00      	cmp	r3, #0
     2d0:	d118      	bne.n	304 <adc_init+0xe4>
	enum adc_accumulate_samples accumulate = ADC_ACCUMULATE_DISABLE;
     2d2:	001a      	movs	r2, r3
     2d4:	e0a5      	b.n	422 <STACK_SIZE+0x22>
			_adc_configure_ain_pin((offset % 16)+(uint8_t)config->positive_input);
     2d6:	230f      	movs	r3, #15
     2d8:	4018      	ands	r0, r3
     2da:	7b23      	ldrb	r3, [r4, #12]
			start_pin++;
     2dc:	3601      	adds	r6, #1
			_adc_configure_ain_pin((offset % 16)+(uint8_t)config->positive_input);
     2de:	18c0      	adds	r0, r0, r3
     2e0:	f7ff ff60 	bl	1a4 <_adc_configure_ain_pin>
			start_pin++;
     2e4:	b2f6      	uxtb	r6, r6
     2e6:	e7d4      	b.n	292 <adc_init+0x72>
		_adc_configure_ain_pin(config->positive_input);
     2e8:	9801      	ldr	r0, [sp, #4]
     2ea:	f7ff ff5b 	bl	1a4 <_adc_configure_ain_pin>
     2ee:	e7d6      	b.n	29e <adc_init+0x7e>
	switch (config->resolution) {
     2f0:	2b32      	cmp	r3, #50	; 0x32
     2f2:	d009      	beq.n	308 <adc_init+0xe8>
     2f4:	d200      	bcs.n	2f8 <adc_init+0xd8>
     2f6:	e098      	b.n	42a <STACK_SIZE+0x2a>
     2f8:	2b33      	cmp	r3, #51	; 0x33
     2fa:	d100      	bne.n	2fe <adc_init+0xde>
     2fc:	e08c      	b.n	418 <STACK_SIZE+0x18>
     2fe:	2b34      	cmp	r3, #52	; 0x34
     300:	d100      	bne.n	304 <adc_init+0xe4>
     302:	e085      	b.n	410 <STACK_SIZE+0x10>
		return STATUS_ERR_INVALID_ARG;
     304:	2017      	movs	r0, #23
		module_inst->software_trigger = false;
	}
#endif

	/* Write configuration to module */
	return _adc_set_config(module_inst, config);
     306:	e081      	b.n	40c <STACK_SIZE+0xc>
		accumulate = ADC_ACCUMULATE_SAMPLES_16;
     308:	2204      	movs	r2, #4
		resolution = ADC_RESOLUTION_16BIT;
     30a:	2310      	movs	r3, #16
		adjres = ADC_DIVIDE_RESULT_4;
     30c:	2102      	movs	r1, #2
	adc_module->AVGCTRL.reg = ADC_AVGCTRL_ADJRES(adjres) | accumulate;
     30e:	2070      	movs	r0, #112	; 0x70
     310:	0109      	lsls	r1, r1, #4
     312:	4001      	ands	r1, r0
     314:	430a      	orrs	r2, r1
     316:	70aa      	strb	r2, [r5, #2]
	if (config->sample_length > 63) {
     318:	7de2      	ldrb	r2, [r4, #23]
     31a:	2a3f      	cmp	r2, #63	; 0x3f
     31c:	d8f2      	bhi.n	304 <adc_init+0xe4>
		adc_module->SAMPCTRL.reg =
     31e:	70ea      	strb	r2, [r5, #3]
     320:	6839      	ldr	r1, [r7, #0]
     322:	7e4a      	ldrb	r2, [r1, #25]
     324:	b252      	sxtb	r2, r2
     326:	2a00      	cmp	r2, #0
     328:	dbfb      	blt.n	322 <adc_init+0x102>
			(config->left_adjust << ADC_CTRLB_LEFTADJ_Pos) |
     32a:	8861      	ldrh	r1, [r4, #2]
			(config->differential_mode << ADC_CTRLB_DIFFMODE_Pos);
     32c:	7ce2      	ldrb	r2, [r4, #19]
			(config->left_adjust << ADC_CTRLB_LEFTADJ_Pos) |
     32e:	430a      	orrs	r2, r1
			(config->correction.correction_enable << ADC_CTRLB_CORREN_Pos) |
     330:	1d61      	adds	r1, r4, #5
     332:	7fc8      	ldrb	r0, [r1, #31]
     334:	00c0      	lsls	r0, r0, #3
			(config->left_adjust << ADC_CTRLB_LEFTADJ_Pos) |
     336:	4302      	orrs	r2, r0
			(config->freerunning << ADC_CTRLB_FREERUN_Pos) |
     338:	7d20      	ldrb	r0, [r4, #20]
     33a:	0080      	lsls	r0, r0, #2
			(config->left_adjust << ADC_CTRLB_LEFTADJ_Pos) |
     33c:	4302      	orrs	r2, r0
     33e:	7ca0      	ldrb	r0, [r4, #18]
     340:	0040      	lsls	r0, r0, #1
     342:	4302      	orrs	r2, r0
     344:	431a      	orrs	r2, r3
	adc_module->CTRLB.reg =
     346:	80aa      	strh	r2, [r5, #4]
	if (config->window.window_mode != ADC_WINDOW_MODE_DISABLE) {
     348:	7e22      	ldrb	r2, [r4, #24]
     34a:	4694      	mov	ip, r2
     34c:	2a00      	cmp	r2, #0
     34e:	d007      	beq.n	360 <adc_init+0x140>
		switch (resolution) {
     350:	2b10      	cmp	r3, #16
     352:	d100      	bne.n	356 <adc_init+0x136>
     354:	e0af      	b.n	4b6 <STACK_SIZE+0xb6>
     356:	d900      	bls.n	35a <adc_init+0x13a>
     358:	e069      	b.n	42e <STACK_SIZE+0x2e>
     35a:	2b00      	cmp	r3, #0
     35c:	d100      	bne.n	360 <adc_init+0x140>
     35e:	e09b      	b.n	498 <STACK_SIZE+0x98>
     360:	6838      	ldr	r0, [r7, #0]
     362:	7e43      	ldrb	r3, [r0, #25]
     364:	b25b      	sxtb	r3, r3
     366:	2b00      	cmp	r3, #0
     368:	dbfb      	blt.n	362 <adc_init+0x142>
	adc_module->WINCTRL.reg = config->window.window_mode;
     36a:	4663      	mov	r3, ip
     36c:	722b      	strb	r3, [r5, #8]
     36e:	683a      	ldr	r2, [r7, #0]
     370:	7e53      	ldrb	r3, [r2, #25]
     372:	b25b      	sxtb	r3, r3
     374:	2b00      	cmp	r3, #0
     376:	dbfb      	blt.n	370 <adc_init+0x150>
	adc_module->WINLT.reg =
     378:	8ba3      	ldrh	r3, [r4, #28]
     37a:	83ab      	strh	r3, [r5, #28]
     37c:	683a      	ldr	r2, [r7, #0]
     37e:	7e53      	ldrb	r3, [r2, #25]
     380:	b25b      	sxtb	r3, r3
     382:	2b00      	cmp	r3, #0
     384:	dbfb      	blt.n	37e <adc_init+0x15e>
	adc_module->WINUT.reg = config->window.window_upper_value <<
     386:	8c23      	ldrh	r3, [r4, #32]
     388:	842b      	strh	r3, [r5, #32]
	uint8_t inputs_to_scan = config->pin_scan.inputs_to_scan;
     38a:	9b02      	ldr	r3, [sp, #8]
     38c:	781a      	ldrb	r2, [r3, #0]
	if (inputs_to_scan > 0) {
     38e:	2a00      	cmp	r2, #0
     390:	d003      	beq.n	39a <adc_init+0x17a>
		inputs_to_scan--;
     392:	3a01      	subs	r2, #1
     394:	b2d2      	uxtb	r2, r2
	if (inputs_to_scan > (ADC_INPUTCTRL_INPUTSCAN_Msk >> ADC_INPUTCTRL_INPUTSCAN_Pos) ||
     396:	2a0f      	cmp	r2, #15
     398:	d8b4      	bhi.n	304 <adc_init+0xe4>
			config->pin_scan.offset_start_scan > (ADC_INPUTCTRL_INPUTOFFSET_Msk >> ADC_INPUTCTRL_INPUTOFFSET_Pos)) {
     39a:	0023      	movs	r3, r4
     39c:	332b      	adds	r3, #43	; 0x2b
     39e:	7818      	ldrb	r0, [r3, #0]
	if (inputs_to_scan > (ADC_INPUTCTRL_INPUTSCAN_Msk >> ADC_INPUTCTRL_INPUTSCAN_Pos) ||
     3a0:	280f      	cmp	r0, #15
     3a2:	d8af      	bhi.n	304 <adc_init+0xe4>
     3a4:	683e      	ldr	r6, [r7, #0]
     3a6:	7e73      	ldrb	r3, [r6, #25]
     3a8:	b25b      	sxtb	r3, r3
     3aa:	2b00      	cmp	r3, #0
     3ac:	dbfb      	blt.n	3a6 <adc_init+0x186>
			config->positive_input;
     3ae:	7b26      	ldrb	r6, [r4, #12]
			config->negative_input |
     3b0:	89e3      	ldrh	r3, [r4, #14]
			(config->pin_scan.offset_start_scan <<
     3b2:	0500      	lsls	r0, r0, #20
			config->negative_input |
     3b4:	4333      	orrs	r3, r6
     3b6:	68a6      	ldr	r6, [r4, #8]
			(inputs_to_scan << ADC_INPUTCTRL_INPUTSCAN_Pos) |
     3b8:	0412      	lsls	r2, r2, #16
			config->negative_input |
     3ba:	4333      	orrs	r3, r6
     3bc:	4303      	orrs	r3, r0
     3be:	4313      	orrs	r3, r2
	adc_module->INPUTCTRL.reg =
     3c0:	612b      	str	r3, [r5, #16]
	adc_module->EVCTRL.reg = config->event_action;
     3c2:	0023      	movs	r3, r4
     3c4:	332a      	adds	r3, #42	; 0x2a
     3c6:	781b      	ldrb	r3, [r3, #0]
     3c8:	752b      	strb	r3, [r5, #20]
	adc_module->INTENCLR.reg =
     3ca:	230f      	movs	r3, #15
     3cc:	75ab      	strb	r3, [r5, #22]
	if (config->correction.correction_enable){
     3ce:	7fcb      	ldrb	r3, [r1, #31]
     3d0:	2b00      	cmp	r3, #0
     3d2:	d00c      	beq.n	3ee <adc_init+0x1ce>
		if (config->correction.gain_correction > ADC_GAINCORR_GAINCORR_Msk) {
     3d4:	8ce3      	ldrh	r3, [r4, #38]	; 0x26
     3d6:	4941      	ldr	r1, [pc, #260]	; (4dc <STACK_SIZE+0xdc>)
     3d8:	428b      	cmp	r3, r1
     3da:	d893      	bhi.n	304 <adc_init+0xe4>
			adc_module->GAINCORR.reg = config->correction.gain_correction <<
     3dc:	84ab      	strh	r3, [r5, #36]	; 0x24
		if (config->correction.offset_correction > 2047 ||
     3de:	2380      	movs	r3, #128	; 0x80
     3e0:	8d22      	ldrh	r2, [r4, #40]	; 0x28
     3e2:	011b      	lsls	r3, r3, #4
     3e4:	18d3      	adds	r3, r2, r3
     3e6:	b29b      	uxth	r3, r3
     3e8:	428b      	cmp	r3, r1
     3ea:	d88b      	bhi.n	304 <adc_init+0xe4>
			adc_module->OFFSETCORR.reg = config->correction.offset_correction <<
     3ec:	84ea      	strh	r2, [r5, #38]	; 0x26
			ADC_CALIB_BIAS_CAL(
     3ee:	22e0      	movs	r2, #224	; 0xe0
     3f0:	4b3b      	ldr	r3, [pc, #236]	; (4e0 <STACK_SIZE+0xe0>)
	return STATUS_OK;
     3f2:	2000      	movs	r0, #0
			ADC_CALIB_BIAS_CAL(
     3f4:	6819      	ldr	r1, [r3, #0]
     3f6:	00d2      	lsls	r2, r2, #3
     3f8:	014b      	lsls	r3, r1, #5
			ADC_CALIB_LINEARITY_CAL(
     3fa:	0019      	movs	r1, r3
			ADC_CALIB_BIAS_CAL(
     3fc:	401a      	ands	r2, r3
			ADC_CALIB_LINEARITY_CAL(
     3fe:	4b39      	ldr	r3, [pc, #228]	; (4e4 <STACK_SIZE+0xe4>)
     400:	681b      	ldr	r3, [r3, #0]
     402:	0edb      	lsrs	r3, r3, #27
     404:	430b      	orrs	r3, r1
     406:	b2db      	uxtb	r3, r3
			) |
     408:	4313      	orrs	r3, r2
	adc_module->CALIB.reg =
     40a:	852b      	strh	r3, [r5, #40]	; 0x28
}
     40c:	b007      	add	sp, #28
     40e:	bdf0      	pop	{r4, r5, r6, r7, pc}
		adjres = config->divide_result;
     410:	7c61      	ldrb	r1, [r4, #17]
		accumulate = config->accumulate_samples;
     412:	7c22      	ldrb	r2, [r4, #16]
		resolution = ADC_RESOLUTION_16BIT;
     414:	2310      	movs	r3, #16
     416:	e77a      	b.n	30e <adc_init+0xee>
		accumulate = ADC_ACCUMULATE_SAMPLES_64;
     418:	2206      	movs	r2, #6
		resolution = ADC_RESOLUTION_16BIT;
     41a:	2310      	movs	r3, #16
		adjres = ADC_DIVIDE_RESULT_2;
     41c:	2101      	movs	r1, #1
     41e:	e776      	b.n	30e <adc_init+0xee>
		accumulate = ADC_ACCUMULATE_SAMPLES_256;
     420:	2208      	movs	r2, #8
		adjres = ADC_DIVIDE_RESULT_DISABLE;
     422:	2100      	movs	r1, #0
     424:	e773      	b.n	30e <adc_init+0xee>
	enum adc_accumulate_samples accumulate = ADC_ACCUMULATE_DISABLE;
     426:	2200      	movs	r2, #0
     428:	e7fb      	b.n	422 <STACK_SIZE+0x22>
		accumulate = ADC_ACCUMULATE_SAMPLES_4;
     42a:	2202      	movs	r2, #2
     42c:	e7f5      	b.n	41a <STACK_SIZE+0x1a>
		switch (resolution) {
     42e:	2b20      	cmp	r3, #32
     430:	d018      	beq.n	464 <STACK_SIZE+0x64>
     432:	2b30      	cmp	r3, #48	; 0x30
     434:	d000      	beq.n	438 <STACK_SIZE+0x38>
     436:	e793      	b.n	360 <adc_init+0x140>
			if (config->differential_mode &&
     438:	7ce3      	ldrb	r3, [r4, #19]
     43a:	69e0      	ldr	r0, [r4, #28]
     43c:	2b00      	cmp	r3, #0
     43e:	d009      	beq.n	454 <STACK_SIZE+0x54>
					(config->window.window_lower_value > 127 ||
     440:	0003      	movs	r3, r0
     442:	3380      	adds	r3, #128	; 0x80
			if (config->differential_mode &&
     444:	2bff      	cmp	r3, #255	; 0xff
     446:	d900      	bls.n	44a <STACK_SIZE+0x4a>
     448:	e75c      	b.n	304 <adc_init+0xe4>
					config->window.window_lower_value < -128 ||
     44a:	6a23      	ldr	r3, [r4, #32]
     44c:	3380      	adds	r3, #128	; 0x80
     44e:	2bff      	cmp	r3, #255	; 0xff
     450:	d900      	bls.n	454 <STACK_SIZE+0x54>
     452:	e757      	b.n	304 <adc_init+0xe4>
			} else if (config->window.window_lower_value > 255 ||
     454:	28ff      	cmp	r0, #255	; 0xff
     456:	dd00      	ble.n	45a <STACK_SIZE+0x5a>
     458:	e754      	b.n	304 <adc_init+0xe4>
     45a:	6a23      	ldr	r3, [r4, #32]
     45c:	2bff      	cmp	r3, #255	; 0xff
     45e:	dd00      	ble.n	462 <STACK_SIZE+0x62>
     460:	e750      	b.n	304 <adc_init+0xe4>
     462:	e77d      	b.n	360 <adc_init+0x140>
			if (config->differential_mode &&
     464:	7ce0      	ldrb	r0, [r4, #19]
     466:	69e6      	ldr	r6, [r4, #28]
     468:	4b1f      	ldr	r3, [pc, #124]	; (4e8 <STACK_SIZE+0xe8>)
     46a:	2800      	cmp	r0, #0
     46c:	d00c      	beq.n	488 <STACK_SIZE+0x88>
					(config->window.window_lower_value > 511 ||
     46e:	2080      	movs	r0, #128	; 0x80
     470:	0080      	lsls	r0, r0, #2
     472:	1830      	adds	r0, r6, r0
			if (config->differential_mode &&
     474:	4298      	cmp	r0, r3
     476:	d900      	bls.n	47a <STACK_SIZE+0x7a>
     478:	e744      	b.n	304 <adc_init+0xe4>
					config->window.window_lower_value < -512 ||
     47a:	2280      	movs	r2, #128	; 0x80
     47c:	6a20      	ldr	r0, [r4, #32]
     47e:	0092      	lsls	r2, r2, #2
					config->window.window_lower_value < -2048 ||
     480:	1810      	adds	r0, r2, r0
     482:	4298      	cmp	r0, r3
     484:	d900      	bls.n	488 <STACK_SIZE+0x88>
     486:	e73d      	b.n	304 <adc_init+0xe4>
			} else if (config->window.window_lower_value > 65535 ||
     488:	429e      	cmp	r6, r3
     48a:	dd00      	ble.n	48e <STACK_SIZE+0x8e>
     48c:	e73a      	b.n	304 <adc_init+0xe4>
     48e:	6a22      	ldr	r2, [r4, #32]
     490:	429a      	cmp	r2, r3
     492:	dd00      	ble.n	496 <STACK_SIZE+0x96>
     494:	e736      	b.n	304 <adc_init+0xe4>
     496:	e763      	b.n	360 <adc_init+0x140>
			if (config->differential_mode &&
     498:	7ce0      	ldrb	r0, [r4, #19]
     49a:	69e6      	ldr	r6, [r4, #28]
     49c:	4b0f      	ldr	r3, [pc, #60]	; (4dc <STACK_SIZE+0xdc>)
     49e:	2800      	cmp	r0, #0
     4a0:	d0f2      	beq.n	488 <STACK_SIZE+0x88>
					(config->window.window_lower_value > 2047 ||
     4a2:	2280      	movs	r2, #128	; 0x80
     4a4:	0112      	lsls	r2, r2, #4
     4a6:	18b0      	adds	r0, r6, r2
			if (config->differential_mode &&
     4a8:	4298      	cmp	r0, r3
     4aa:	d900      	bls.n	4ae <STACK_SIZE+0xae>
     4ac:	e72a      	b.n	304 <adc_init+0xe4>
					config->window.window_lower_value < -2048 ||
     4ae:	2080      	movs	r0, #128	; 0x80
     4b0:	6a22      	ldr	r2, [r4, #32]
     4b2:	0100      	lsls	r0, r0, #4
     4b4:	e7e4      	b.n	480 <STACK_SIZE+0x80>
			if (config->differential_mode &&
     4b6:	7ce0      	ldrb	r0, [r4, #19]
     4b8:	69e6      	ldr	r6, [r4, #28]
     4ba:	4b0c      	ldr	r3, [pc, #48]	; (4ec <STACK_SIZE+0xec>)
     4bc:	2800      	cmp	r0, #0
     4be:	d0e3      	beq.n	488 <STACK_SIZE+0x88>
					(config->window.window_lower_value > 32767 ||
     4c0:	2280      	movs	r2, #128	; 0x80
     4c2:	0212      	lsls	r2, r2, #8
     4c4:	18b0      	adds	r0, r6, r2
			if (config->differential_mode &&
     4c6:	4298      	cmp	r0, r3
     4c8:	d900      	bls.n	4cc <STACK_SIZE+0xcc>
     4ca:	e71b      	b.n	304 <adc_init+0xe4>
					config->window.window_lower_value < -32768 ||
     4cc:	2080      	movs	r0, #128	; 0x80
     4ce:	6a22      	ldr	r2, [r4, #32]
     4d0:	0200      	lsls	r0, r0, #8
     4d2:	e7d5      	b.n	480 <STACK_SIZE+0x80>
     4d4:	40000400 	.word	0x40000400
     4d8:	40000800 	.word	0x40000800
     4dc:	00000fff 	.word	0x00000fff
     4e0:	00806024 	.word	0x00806024
     4e4:	00806020 	.word	0x00806020
     4e8:	000003ff 	.word	0x000003ff
     4ec:	0000ffff 	.word	0x0000ffff

000004f0 <EIC_Handler>:

/** Handler for the EXTINT hardware module interrupt. */
void EIC_Handler(void)
{
	/* Find any triggered channels, run associated callback handlers */
	for (_current_channel = 0; _current_channel < EIC_NUMBER_OF_INTERRUPTS ; _current_channel++) {
     4f0:	2300      	movs	r3, #0
{
     4f2:	b570      	push	{r4, r5, r6, lr}
 */
static inline bool extint_chan_is_detected(
		const uint8_t channel)
{
	Eic *const eic_module = _extint_get_eic_from_channel(channel);
	uint32_t eic_mask   = (1UL << (channel % 32));
     4f4:	2501      	movs	r5, #1
	for (_current_channel = 0; _current_channel < EIC_NUMBER_OF_INTERRUPTS ; _current_channel++) {
     4f6:	4c0b      	ldr	r4, [pc, #44]	; (524 <EIC_Handler+0x34>)
     4f8:	7023      	strb	r3, [r4, #0]
     4fa:	7823      	ldrb	r3, [r4, #0]
     4fc:	2b0f      	cmp	r3, #15
     4fe:	d900      	bls.n	502 <EIC_Handler+0x12>
				/* Run the registered callback */
				_extint_dev.callbacks[_current_channel]();
			}
		}
	}
}
     500:	bd70      	pop	{r4, r5, r6, pc}
     502:	0029      	movs	r1, r5
     504:	4099      	lsls	r1, r3

	return (eic_module->INTFLAG.reg & eic_mask);
     506:	4a08      	ldr	r2, [pc, #32]	; (528 <EIC_Handler+0x38>)
     508:	6910      	ldr	r0, [r2, #16]
		if (extint_chan_is_detected(_current_channel)) {
     50a:	4208      	tst	r0, r1
     50c:	d006      	beq.n	51c <EIC_Handler+0x2c>
		const uint8_t channel)
{
	Eic *const eic_module = _extint_get_eic_from_channel(channel);
	uint32_t eic_mask   = (1UL << (channel % 32));

	eic_module->INTFLAG.reg = eic_mask;
     50e:	6111      	str	r1, [r2, #16]
			if (_extint_dev.callbacks[_current_channel] != NULL) {
     510:	4a06      	ldr	r2, [pc, #24]	; (52c <EIC_Handler+0x3c>)
     512:	009b      	lsls	r3, r3, #2
     514:	589b      	ldr	r3, [r3, r2]
     516:	2b00      	cmp	r3, #0
     518:	d000      	beq.n	51c <EIC_Handler+0x2c>
				_extint_dev.callbacks[_current_channel]();
     51a:	4798      	blx	r3
	for (_current_channel = 0; _current_channel < EIC_NUMBER_OF_INTERRUPTS ; _current_channel++) {
     51c:	7823      	ldrb	r3, [r4, #0]
     51e:	3301      	adds	r3, #1
     520:	7023      	strb	r3, [r4, #0]
     522:	e7ea      	b.n	4fa <EIC_Handler+0xa>
     524:	200000a0 	.word	0x200000a0
     528:	40001800 	.word	0x40001800
     52c:	200000a4 	.word	0x200000a4

00000530 <extint_is_syncing>:
static inline bool extint_is_syncing(void)
{
	Eic *const eics[EIC_INST_NUM] = EIC_INSTS;

	for (uint32_t i = 0; i < EIC_INST_NUM; i++) {
		if (eics[i]->STATUS.reg & EIC_STATUS_SYNCBUSY) {
     530:	4b01      	ldr	r3, [pc, #4]	; (538 <extint_is_syncing+0x8>)
     532:	7858      	ldrb	r0, [r3, #1]
     534:	09c0      	lsrs	r0, r0, #7
			return true;
		}
	}
	return false;
}
     536:	4770      	bx	lr
     538:	40001800 	.word	0x40001800

0000053c <_extint_enable>:
{
	Eic *const eics[EIC_INST_NUM] = EIC_INSTS;

	/* Enable all EIC hardware modules. */
	for (uint32_t i = 0; i < EIC_INST_NUM; i++) {
		eics[i]->CTRL.reg |= EIC_CTRL_ENABLE;
     53c:	2302      	movs	r3, #2
{
     53e:	b510      	push	{r4, lr}
		eics[i]->CTRL.reg |= EIC_CTRL_ENABLE;
     540:	4a04      	ldr	r2, [pc, #16]	; (554 <_extint_enable+0x18>)
     542:	7811      	ldrb	r1, [r2, #0]
     544:	430b      	orrs	r3, r1
     546:	7013      	strb	r3, [r2, #0]
	}

	while (extint_is_syncing()) {
     548:	f7ff fff2 	bl	530 <extint_is_syncing>
     54c:	2800      	cmp	r0, #0
     54e:	d1fb      	bne.n	548 <_extint_enable+0xc>
		/* Wait for all hardware modules to complete synchronization */
	}
}
     550:	bd10      	pop	{r4, pc}
     552:	46c0      	nop			; (mov r8, r8)
     554:	40001800 	.word	0x40001800

00000558 <_system_extint_init>:
			PM->APBAMASK.reg |= mask;
     558:	2340      	movs	r3, #64	; 0x40
{
     55a:	b507      	push	{r0, r1, r2, lr}
     55c:	4a10      	ldr	r2, [pc, #64]	; (5a0 <_system_extint_init+0x48>)
	system_gclk_chan_set_config(EIC_GCLK_ID, &gclk_chan_conf);
     55e:	2005      	movs	r0, #5
     560:	6991      	ldr	r1, [r2, #24]
     562:	430b      	orrs	r3, r1
     564:	6193      	str	r3, [r2, #24]
{
	/* Sanity check arguments */
	Assert(config);

	/* Default configuration values */
	config->source_generator = GCLK_GENERATOR_0;
     566:	2300      	movs	r3, #0
     568:	a901      	add	r1, sp, #4
     56a:	700b      	strb	r3, [r1, #0]
     56c:	f001 fa36 	bl	19dc <system_gclk_chan_set_config>
	system_gclk_chan_enable(EIC_GCLK_ID);
     570:	2005      	movs	r0, #5
     572:	f001 f9f7 	bl	1964 <system_gclk_chan_enable>
		eics[i]->CTRL.reg |= EIC_CTRL_SWRST;
     576:	2301      	movs	r3, #1
     578:	4a0a      	ldr	r2, [pc, #40]	; (5a4 <_system_extint_init+0x4c>)
     57a:	7811      	ldrb	r1, [r2, #0]
     57c:	430b      	orrs	r3, r1
     57e:	7013      	strb	r3, [r2, #0]
	while (extint_is_syncing()) {
     580:	f7ff ffd6 	bl	530 <extint_is_syncing>
     584:	2800      	cmp	r0, #0
     586:	d1fb      	bne.n	580 <_system_extint_init+0x28>
		_extint_dev.callbacks[j] = NULL;
     588:	0002      	movs	r2, r0
     58a:	4b07      	ldr	r3, [pc, #28]	; (5a8 <_system_extint_init+0x50>)
     58c:	501a      	str	r2, [r3, r0]
     58e:	3004      	adds	r0, #4
	for (uint8_t j = 0; j < EIC_NUMBER_OF_INTERRUPTS; j++) {
     590:	2840      	cmp	r0, #64	; 0x40
     592:	d1fb      	bne.n	58c <_system_extint_init+0x34>
 * \param[in] vector Interrupt vector to enable
 */
static inline void system_interrupt_enable(
		const enum system_interrupt_vector vector)
{
	NVIC->ISER[0] = (uint32_t)(1 << ((uint32_t)vector & 0x0000001f));
     594:	2210      	movs	r2, #16
     596:	4b05      	ldr	r3, [pc, #20]	; (5ac <_system_extint_init+0x54>)
     598:	601a      	str	r2, [r3, #0]
	_extint_enable();
     59a:	f7ff ffcf 	bl	53c <_extint_enable>
}
     59e:	bd07      	pop	{r0, r1, r2, pc}
     5a0:	40000400 	.word	0x40000400
     5a4:	40001800 	.word	0x40001800
     5a8:	200000a4 	.word	0x200000a4
     5ac:	e000e100 	.word	0xe000e100

000005b0 <is_button_one_pressed>:
		const uint8_t gpio_pin)
{
	PortGroup *const port_base = port_get_group_from_gpio_pin(gpio_pin);
	uint32_t pin_mask  = (1UL << (gpio_pin % 32));

	return (port_base->IN.reg & pin_mask);
     5b0:	4b14      	ldr	r3, [pc, #80]	; (604 <is_button_one_pressed+0x54>)
     5b2:	4915      	ldr	r1, [pc, #84]	; (608 <is_button_one_pressed+0x58>)
     5b4:	6a18      	ldr	r0, [r3, #32]
     5b6:	4a15      	ldr	r2, [pc, #84]	; (60c <is_button_one_pressed+0x5c>)
     5b8:	4b15      	ldr	r3, [pc, #84]	; (610 <is_button_one_pressed+0x60>)
/************************************************************************/
/* Button 1 function													*/
/************************************************************************/
bool is_button_one_pressed(void) {

  if (!port_pin_get_input_level(BUTTON_1)) {
     5ba:	0440      	lsls	r0, r0, #17
     5bc:	d418      	bmi.n	5f0 <is_button_one_pressed+0x40>
    BUTTON_ONE_PRESS_STATUS = true;
     5be:	2001      	movs	r0, #1
     5c0:	7008      	strb	r0, [r1, #0]
    press_B1_delay_count--;
     5c2:	6819      	ldr	r1, [r3, #0]
     5c4:	3901      	subs	r1, #1
     5c6:	6019      	str	r1, [r3, #0]
    long_press_B1_delay_count--;
     5c8:	6811      	ldr	r1, [r2, #0]
     5ca:	3901      	subs	r1, #1

  } else {
    BUTTON_ONE_PRESS_STATUS = false;
    press_B1_delay_count = DELAY_DEBOUNCE_CN;
    long_press_B1_delay_count = DELAY_PRESS_CN;
     5cc:	6011      	str	r1, [r2, #0]

  }

  // long press delay logic
  if (long_press_B1_delay_count <= 0) {
     5ce:	6811      	ldr	r1, [r2, #0]
     5d0:	2900      	cmp	r1, #0
     5d2:	dc04      	bgt.n	5de <is_button_one_pressed+0x2e>
    LongPressB1Flag = true;
     5d4:	2001      	movs	r0, #1
     5d6:	490f      	ldr	r1, [pc, #60]	; (614 <is_button_one_pressed+0x64>)
     5d8:	7008      	strb	r0, [r1, #0]
    long_press_B1_delay_count = 0;
     5da:	2100      	movs	r1, #0
     5dc:	6011      	str	r1, [r2, #0]
     5de:	2000      	movs	r0, #0
  }

  // debounce logic
  if (press_B1_delay_count <= 0) {
     5e0:	6819      	ldr	r1, [r3, #0]
     5e2:	4a0d      	ldr	r2, [pc, #52]	; (618 <is_button_one_pressed+0x68>)
     5e4:	4281      	cmp	r1, r0
     5e6:	dc0a      	bgt.n	5fe <is_button_one_pressed+0x4e>
    BUTTON_ONE_RELEASE_STATUS = false;
     5e8:	7010      	strb	r0, [r2, #0]
    press_B1_delay_count = 0;
     5ea:	6018      	str	r0, [r3, #0]
    return true;
     5ec:	3001      	adds	r0, #1

  } else {
    BUTTON_ONE_RELEASE_STATUS = true;
    return false;
  }
}
     5ee:	4770      	bx	lr
    BUTTON_ONE_PRESS_STATUS = false;
     5f0:	2000      	movs	r0, #0
     5f2:	7008      	strb	r0, [r1, #0]
    press_B1_delay_count = DELAY_DEBOUNCE_CN;
     5f4:	2102      	movs	r1, #2
     5f6:	6019      	str	r1, [r3, #0]
    long_press_B1_delay_count = DELAY_PRESS_CN;
     5f8:	318f      	adds	r1, #143	; 0x8f
     5fa:	31ff      	adds	r1, #255	; 0xff
     5fc:	e7e6      	b.n	5cc <is_button_one_pressed+0x1c>
    BUTTON_ONE_RELEASE_STATUS = true;
     5fe:	2301      	movs	r3, #1
     600:	7013      	strb	r3, [r2, #0]
    return false;
     602:	e7f4      	b.n	5ee <is_button_one_pressed+0x3e>
     604:	41004400 	.word	0x41004400
     608:	2000003c 	.word	0x2000003c
     60c:	20000000 	.word	0x20000000
     610:	20000008 	.word	0x20000008
     614:	20000040 	.word	0x20000040
     618:	2000003d 	.word	0x2000003d

0000061c <is_button_two_pressed>:
     61c:	4b14      	ldr	r3, [pc, #80]	; (670 <is_button_two_pressed+0x54>)
     61e:	4915      	ldr	r1, [pc, #84]	; (674 <is_button_two_pressed+0x58>)
     620:	6a18      	ldr	r0, [r3, #32]
     622:	4a15      	ldr	r2, [pc, #84]	; (678 <is_button_two_pressed+0x5c>)
     624:	4b15      	ldr	r3, [pc, #84]	; (67c <is_button_two_pressed+0x60>)
/************************************************************************/
/* Button 2 function														*/
/************************************************************************/
bool is_button_two_pressed(void) {

  if (!port_pin_get_input_level(BUTTON_2)) {
     626:	0400      	lsls	r0, r0, #16
     628:	d418      	bmi.n	65c <is_button_two_pressed+0x40>
    BUTTON_TWO_PRESS_STATUS = true;
     62a:	2001      	movs	r0, #1
     62c:	7008      	strb	r0, [r1, #0]
    press_B2_delay_count--;
     62e:	6819      	ldr	r1, [r3, #0]
     630:	3901      	subs	r1, #1
     632:	6019      	str	r1, [r3, #0]
    long_press_B2_delay_count--;
     634:	6811      	ldr	r1, [r2, #0]
     636:	3901      	subs	r1, #1

  } else {
    BUTTON_TWO_PRESS_STATUS = false;
    press_B2_delay_count = DELAY_DEBOUNCE_CN;
    long_press_B2_delay_count = DELAY_PRESS_CN;
     638:	6011      	str	r1, [r2, #0]

  }

  // long press delay logic
  if (long_press_B2_delay_count <= 0) {
     63a:	6811      	ldr	r1, [r2, #0]
     63c:	2900      	cmp	r1, #0
     63e:	dc04      	bgt.n	64a <is_button_two_pressed+0x2e>
    LongPressB2Flag = true;
     640:	2001      	movs	r0, #1
     642:	490f      	ldr	r1, [pc, #60]	; (680 <is_button_two_pressed+0x64>)
     644:	7008      	strb	r0, [r1, #0]
    long_press_B2_delay_count = 0;
     646:	2100      	movs	r1, #0
     648:	6011      	str	r1, [r2, #0]
     64a:	2000      	movs	r0, #0
  }

  // debounce logic
  if (press_B2_delay_count <= 0) {
     64c:	6819      	ldr	r1, [r3, #0]
     64e:	4a0d      	ldr	r2, [pc, #52]	; (684 <is_button_two_pressed+0x68>)
     650:	4281      	cmp	r1, r0
     652:	dc0a      	bgt.n	66a <is_button_two_pressed+0x4e>
    BUTTON_TWO_RELEASE_STATUS = false;
     654:	7010      	strb	r0, [r2, #0]
    press_B2_delay_count = 0;
     656:	6018      	str	r0, [r3, #0]
    return true;
     658:	3001      	adds	r0, #1

  } else {
    BUTTON_TWO_RELEASE_STATUS = true;
    return false;
  }
     65a:	4770      	bx	lr
    BUTTON_TWO_PRESS_STATUS = false;
     65c:	2000      	movs	r0, #0
     65e:	7008      	strb	r0, [r1, #0]
    press_B2_delay_count = DELAY_DEBOUNCE_CN;
     660:	2102      	movs	r1, #2
     662:	6019      	str	r1, [r3, #0]
    long_press_B2_delay_count = DELAY_PRESS_CN;
     664:	318f      	adds	r1, #143	; 0x8f
     666:	31ff      	adds	r1, #255	; 0xff
     668:	e7e6      	b.n	638 <is_button_two_pressed+0x1c>
    BUTTON_TWO_RELEASE_STATUS = true;
     66a:	2301      	movs	r3, #1
     66c:	7013      	strb	r3, [r2, #0]
    return false;
     66e:	e7f4      	b.n	65a <is_button_two_pressed+0x3e>
     670:	41004400 	.word	0x41004400
     674:	2000003e 	.word	0x2000003e
     678:	20000004 	.word	0x20000004
     67c:	2000000c 	.word	0x2000000c
     680:	20000041 	.word	0x20000041
     684:	2000003f 	.word	0x2000003f

00000688 <set_pwm_color_channel>:
#include "pwm_led.h"

uint8_t pwm_led_toggle_count = 0;


void set_pwm_color_channel(uint8_t channel, bool enable) {
     688:	b510      	push	{r4, lr}
     68a:	1e0a      	subs	r2, r1, #0
     68c:	4c0a      	ldr	r4, [pc, #40]	; (6b8 <set_pwm_color_channel+0x30>)
	
	
	if (enable){
     68e:	d000      	beq.n	692 <set_pwm_color_channel+0xa>
		tcc_set_compare_value(&tcc_instance,
     690:	4a0a      	ldr	r2, [pc, #40]	; (6bc <set_pwm_color_channel+0x34>)
		channel,
		INDICATION_LED_DUTY_CYCLE);
	}else{
		tcc_set_compare_value(&tcc_instance,
     692:	0001      	movs	r1, r0
     694:	0020      	movs	r0, r4
     696:	f001 fa4b 	bl	1b30 <tcc_set_compare_value>
	Tcc *const tcc_module = module_inst->hw;
	uint32_t last_cmd;

	/* Wait until last command is done */
	do {
		while (tcc_module->SYNCBUSY.reg & TCC_SYNCBUSY_CTRLB) {
     69a:	2104      	movs	r1, #4
     69c:	201f      	movs	r0, #31
     69e:	6822      	ldr	r2, [r4, #0]
     6a0:	6893      	ldr	r3, [r2, #8]
     6a2:	420b      	tst	r3, r1
     6a4:	d1fc      	bne.n	6a0 <set_pwm_color_channel+0x18>
			/* Wait for sync */
		}
		last_cmd = tcc_module->CTRLBSET.reg & TCC_CTRLBSET_CMD_Msk;
     6a6:	7953      	ldrb	r3, [r2, #5]
     6a8:	4383      	bics	r3, r0
		if (last_cmd == TCC_CTRLBSET_CMD_NONE) {
     6aa:	d002      	beq.n	6b2 <set_pwm_color_channel+0x2a>
			break;
		} else if (last_cmd == TCC_CTRLBSET_CMD_UPDATE) {
     6ac:	2b60      	cmp	r3, #96	; 0x60
     6ae:	d1f7      	bne.n	6a0 <set_pwm_color_channel+0x18>
		channel,
		ZERO_DUTY_CYCLE);
	}
	
	tcc_force_double_buffer_update(&tcc_instance);
}
     6b0:	bd10      	pop	{r4, pc}
			return;
		}
	} while (1);

	/* Write command to execute */
	tcc_module->CTRLBSET.reg = TCC_CTRLBSET_CMD_UPDATE;
     6b2:	2360      	movs	r3, #96	; 0x60
     6b4:	7153      	strb	r3, [r2, #5]
     6b6:	e7fb      	b.n	6b0 <set_pwm_color_channel+0x28>
     6b8:	200000e4 	.word	0x200000e4
     6bc:	000003ff 	.word	0x000003ff

000006c0 <pwm_led_system_cleanup>:



void pwm_led_system_cleanup(void) {
	set_pwm_color_channel(RED_CHANNEL, false);
     6c0:	2100      	movs	r1, #0
void pwm_led_system_cleanup(void) {
     6c2:	b510      	push	{r4, lr}
	set_pwm_color_channel(RED_CHANNEL, false);
     6c4:	0008      	movs	r0, r1
     6c6:	f7ff ffdf 	bl	688 <set_pwm_color_channel>
	set_pwm_color_channel(BLUE_CHANNEL, false);
     6ca:	2100      	movs	r1, #0
     6cc:	2002      	movs	r0, #2
     6ce:	f7ff ffdb 	bl	688 <set_pwm_color_channel>
	set_pwm_color_channel(GREEN_CHANNEL, false);
     6d2:	2100      	movs	r1, #0
     6d4:	2001      	movs	r0, #1
     6d6:	f7ff ffd7 	bl	688 <set_pwm_color_channel>
	set_pwm_color_channel(WHITE_CHANNEL, false);
     6da:	2100      	movs	r1, #0
     6dc:	2003      	movs	r0, #3
     6de:	f7ff ffd3 	bl	688 <set_pwm_color_channel>
}
     6e2:	bd10      	pop	{r4, pc}

000006e4 <set_pwm_color>:



void set_pwm_color(int color) {
     6e4:	b510      	push	{r4, lr}
     6e6:	0004      	movs	r4, r0
	
	pwm_led_system_cleanup();
     6e8:	f7ff ffea 	bl	6c0 <pwm_led_system_cleanup>
	
	switch (color) {
     6ec:	2c06      	cmp	r4, #6
     6ee:	d80a      	bhi.n	706 <set_pwm_color+0x22>
     6f0:	0020      	movs	r0, r4
		case 5:  // Purple (Red + Blue)
		set_pwm_color_channel(RED_CHANNEL, true);
		set_pwm_color_channel(BLUE_CHANNEL, true);
		break;
		case 6:  // Cyan (Blue + Green)
		set_pwm_color_channel(BLUE_CHANNEL, true);
     6f2:	2101      	movs	r1, #1
	switch (color) {
     6f4:	f001 fe16 	bl	2324 <__gnu_thumb1_case_uqi>
     6f8:	08140e04 	.word	0x08140e04
     6fc:	100a      	.short	0x100a
     6fe:	16          	.byte	0x16
     6ff:	00          	.byte	0x00
		set_pwm_color_channel(RED_CHANNEL, true);
     700:	2000      	movs	r0, #0
		set_pwm_color_channel(GREEN_CHANNEL, true);
     702:	f7ff ffc1 	bl	688 <set_pwm_color_channel>
		break;
		default:
		break;
	}
}
     706:	bd10      	pop	{r4, pc}
		set_pwm_color_channel(WHITE_CHANNEL, true);
     708:	2003      	movs	r0, #3
     70a:	e7fa      	b.n	702 <set_pwm_color+0x1e>
		set_pwm_color_channel(RED_CHANNEL, true);
     70c:	2000      	movs	r0, #0
		set_pwm_color_channel(BLUE_CHANNEL, true);
     70e:	f7ff ffbb 	bl	688 <set_pwm_color_channel>
		set_pwm_color_channel(GREEN_CHANNEL, true);
     712:	2101      	movs	r1, #1
     714:	0008      	movs	r0, r1
     716:	e7f4      	b.n	702 <set_pwm_color+0x1e>
		set_pwm_color_channel(RED_CHANNEL, true);
     718:	2000      	movs	r0, #0
     71a:	f7ff ffb5 	bl	688 <set_pwm_color_channel>
		set_pwm_color_channel(BLUE_CHANNEL, true);
     71e:	2101      	movs	r1, #1
     720:	2002      	movs	r0, #2
     722:	e7ee      	b.n	702 <set_pwm_color+0x1e>
		set_pwm_color_channel(BLUE_CHANNEL, true);
     724:	2002      	movs	r0, #2
     726:	e7f2      	b.n	70e <set_pwm_color+0x2a>

00000728 <cycle_pwm_led>:
	tcc_enable(&tcc_instance);
	
}


void cycle_pwm_led(void) {
     728:	b510      	push	{r4, lr}
	switch (pwm_led_toggle_count) {
     72a:	4c13      	ldr	r4, [pc, #76]	; (778 <cycle_pwm_led+0x50>)
     72c:	7820      	ldrb	r0, [r4, #0]
     72e:	3801      	subs	r0, #1
     730:	2806      	cmp	r0, #6
     732:	d81b      	bhi.n	76c <cycle_pwm_led+0x44>
     734:	f001 fdf6 	bl	2324 <__gnu_thumb1_case_uqi>
     738:	12100a04 	.word	0x12100a04
     73c:	1614      	.short	0x1614
     73e:	18          	.byte	0x18
     73f:	00          	.byte	0x00
		case 1:
		SET_RED;
     740:	2000      	movs	r0, #0
     742:	f7ff ffcf 	bl	6e4 <set_pwm_color>
		set_color_red_indication();
     746:	f001 fc29 	bl	1f9c <set_color_red_indication>
		case 8:
		pwm_led_system_cleanup();							// Reset to 1 for red
		pwm_led_toggle_count = 0;
		break;
	}
}
     74a:	bd10      	pop	{r4, pc}
		set_color_blue_indication();
     74c:	f001 fc42 	bl	1fd4 <set_color_blue_indication>
		SET_GRN;
     750:	2001      	movs	r0, #1
		SET_WHT;
     752:	f7ff ffc7 	bl	6e4 <set_pwm_color>
		break;
     756:	e7f8      	b.n	74a <cycle_pwm_led+0x22>
		SET_BLU;
     758:	2002      	movs	r0, #2
     75a:	e7fa      	b.n	752 <cycle_pwm_led+0x2a>
		SET_YLW;
     75c:	2004      	movs	r0, #4
     75e:	e7f8      	b.n	752 <cycle_pwm_led+0x2a>
		SET_PLE;
     760:	2005      	movs	r0, #5
     762:	e7f6      	b.n	752 <cycle_pwm_led+0x2a>
		SET_CYN;
     764:	2006      	movs	r0, #6
     766:	e7f4      	b.n	752 <cycle_pwm_led+0x2a>
		SET_WHT;
     768:	2003      	movs	r0, #3
     76a:	e7f2      	b.n	752 <cycle_pwm_led+0x2a>
		pwm_led_system_cleanup();							// Reset to 1 for red
     76c:	f7ff ffa8 	bl	6c0 <pwm_led_system_cleanup>
		pwm_led_toggle_count = 0;
     770:	2300      	movs	r3, #0
     772:	7023      	strb	r3, [r4, #0]
}
     774:	e7e9      	b.n	74a <cycle_pwm_led+0x22>
     776:	46c0      	nop			; (mov r8, r8)
     778:	20000042 	.word	0x20000042

0000077c <configure_pwm_generator>:
	struct tc_config config_tc;
	tc_get_config_defaults (&config_tc);

	config_tc.clock_source = TC_CLOCK_SOURCE;
	config_tc.counter_size = TC_COUNTER_SIZE;
	config_tc.clock_prescaler = TC_CLOCK_PRESCALER;
     77c:	21a0      	movs	r1, #160	; 0xa0
{
     77e:	b500      	push	{lr}
     780:	b08f      	sub	sp, #60	; 0x3c
{
	/* Sanity check arguments */
	Assert(config);

	/* Write default config to config struct */
	config->clock_source               = GCLK_GENERATOR_0;
     782:	aa01      	add	r2, sp, #4
	config_tc.clock_prescaler = TC_CLOCK_PRESCALER;
     784:	00c9      	lsls	r1, r1, #3
     786:	8091      	strh	r1, [r2, #4]

	config_tc.counter_8_bit.value = 0;
	config_tc.counter_8_bit.period = PWM_PERIOD_VALUE;
     788:	212d      	movs	r1, #45	; 0x2d
     78a:	2300      	movs	r3, #0
     78c:	2055      	movs	r0, #85	; 0x55
     78e:	4469      	add	r1, sp

	config->pwm_channel[TC_COMPARE_CAPTURE_CHANNEL_1].enabled = false;
	config->pwm_channel[TC_COMPARE_CAPTURE_CHANNEL_1].pin_out = 0;
	config->pwm_channel[TC_COMPARE_CAPTURE_CHANNEL_1].pin_mux = 0;

	config->counter_16_bit.value                   = 0x0000;
     790:	8513      	strh	r3, [r2, #40]	; 0x28
     792:	7008      	strb	r0, [r1, #0]

	config_tc.counter_8_bit.compare_capture_channel[0] = INITIAL_DUTY_CYCLE;
     794:	212e      	movs	r1, #46	; 0x2e
     796:	3840      	subs	r0, #64	; 0x40
     798:	4469      	add	r1, sp
	config->counter_16_bit.compare_capture_channel\
		[TC_COMPARE_CAPTURE_CHANNEL_0]                        = 0x0000;
     79a:	8553      	strh	r3, [r2, #42]	; 0x2a
     79c:	7008      	strb	r0, [r1, #0]

	config_tc.wave_generation = TC_WAVE_GENERATION_NORMAL_PWM;
     79e:	2140      	movs	r1, #64	; 0x40
	config->clock_source               = GCLK_GENERATOR_0;
     7a0:	7013      	strb	r3, [r2, #0]
	config->reload_action              = TC_RELOAD_ACTION_GCLK;
     7a2:	8113      	strh	r3, [r2, #8]
	config->run_in_standby             = false;
     7a4:	7053      	strb	r3, [r2, #1]
	config->waveform_invert_output     = TC_WAVEFORM_INVERT_OUTPUT_NONE;
     7a6:	7293      	strb	r3, [r2, #10]
	config->enable_capture_on_channel[TC_COMPARE_CAPTURE_CHANNEL_0] = false;
     7a8:	72d3      	strb	r3, [r2, #11]
	config->enable_capture_on_channel[TC_COMPARE_CAPTURE_CHANNEL_1] = false;
     7aa:	7313      	strb	r3, [r2, #12]
	config->count_direction            = TC_COUNT_DIRECTION_UP;
     7ac:	7393      	strb	r3, [r2, #14]
	config->oneshot                    = false;
     7ae:	7353      	strb	r3, [r2, #13]
	config->pwm_channel[TC_COMPARE_CAPTURE_CHANNEL_1].enabled = false;
     7b0:	7713      	strb	r3, [r2, #28]
	config->pwm_channel[TC_COMPARE_CAPTURE_CHANNEL_1].pin_out = 0;
     7b2:	6213      	str	r3, [r2, #32]
	config->pwm_channel[TC_COMPARE_CAPTURE_CHANNEL_1].pin_mux = 0;
     7b4:	6253      	str	r3, [r2, #36]	; 0x24
	config->counter_16_bit.compare_capture_channel\
		[TC_COMPARE_CAPTURE_CHANNEL_1]                        = 0x0000;
     7b6:	8593      	strh	r3, [r2, #44]	; 0x2c
	config_tc.counter_size = TC_COUNTER_SIZE;
     7b8:	3304      	adds	r3, #4
     7ba:	7093      	strb	r3, [r2, #2]
	config_tc.wave_generation = TC_WAVE_GENERATION_NORMAL_PWM;
     7bc:	7191      	strb	r1, [r2, #6]
	config_tc.pwm_channel[0].pin_out = PWM_PIN_OUT;
	config_tc.pwm_channel[0].pin_mux = PWM_MUX_OUT;
     7be:	6193      	str	r3, [r2, #24]
	config_tc.pwm_channel[0].pin_out = PWM_PIN_OUT;
     7c0:	3936      	subs	r1, #54	; 0x36

	config_tc.pwm_channel[0].enabled = true;
     7c2:	3b03      	subs	r3, #3
	config_tc.pwm_channel[0].pin_out = PWM_PIN_OUT;
     7c4:	6151      	str	r1, [r2, #20]
	config_tc.pwm_channel[0].enabled = true;
     7c6:	7413      	strb	r3, [r2, #16]
	
	tc_init (&pwm_generator_instance, PWM_GENERATOR, &config_tc);
     7c8:	4902      	ldr	r1, [pc, #8]	; (7d4 <configure_pwm_generator+0x58>)
     7ca:	4803      	ldr	r0, [pc, #12]	; (7d8 <configure_pwm_generator+0x5c>)
     7cc:	f001 fa38 	bl	1c40 <tc_init>
}
     7d0:	b00f      	add	sp, #60	; 0x3c
     7d2:	bd00      	pop	{pc}
     7d4:	42001c00 	.word	0x42001c00
     7d8:	200001e4 	.word	0x200001e4

000007dc <motor_enable>:



void motor_enable(void){
     7dc:	b510      	push	{r4, lr}
     7de:	4b09      	ldr	r3, [pc, #36]	; (804 <motor_enable+0x28>)
     7e0:	681b      	ldr	r3, [r3, #0]
	return (tc_module->STATUS.reg & TC_STATUS_SYNCBUSY);
     7e2:	7bda      	ldrb	r2, [r3, #15]
	Assert(module_inst->hw);

	/* Get a pointer to the module's hardware instance */
	TcCount8 *const tc_module = &(module_inst->hw->COUNT8);

	while (tc_is_syncing(module_inst)) {
     7e4:	b252      	sxtb	r2, r2
     7e6:	2a00      	cmp	r2, #0
     7e8:	dbfb      	blt.n	7e2 <motor_enable+0x6>
		/* Wait for sync */
	}

	/* Enable TC module */
	tc_module->CTRLA.reg |= TC_CTRLA_ENABLE;
     7ea:	2202      	movs	r2, #2
     7ec:	8819      	ldrh	r1, [r3, #0]
     7ee:	430a      	orrs	r2, r1
     7f0:	801a      	strh	r2, [r3, #0]
	PortGroup *const port_base = port_get_group_from_gpio_pin(gpio_pin);
	uint32_t pin_mask  = (1UL << (gpio_pin % 32));

	/* Set the pin to high or low atomically based on the requested level */
	if (level) {
		port_base->OUTSET.reg = pin_mask;
     7f2:	2240      	movs	r2, #64	; 0x40
     7f4:	4b04      	ldr	r3, [pc, #16]	; (808 <motor_enable+0x2c>)
     7f6:	619a      	str	r2, [r3, #24]
	tc_enable(&pwm_generator_instance);
	port_pin_set_output_level(MOTOR_NSLEEP_PIN, HIGH);
	motor_running = true;
     7f8:	4b04      	ldr	r3, [pc, #16]	; (80c <motor_enable+0x30>)
     7fa:	3a3f      	subs	r2, #63	; 0x3f
     7fc:	701a      	strb	r2, [r3, #0]
	set_motor_speed_1_indication();
     7fe:	f001 fc6b 	bl	20d8 <set_motor_speed_1_indication>

}
     802:	bd10      	pop	{r4, pc}
     804:	200001e4 	.word	0x200001e4
     808:	41004400 	.word	0x41004400
     80c:	20000044 	.word	0x20000044

00000810 <motor_disable>:


void motor_disable(void){
	pulsating_motor_routine = false;
     810:	2100      	movs	r1, #0
     812:	4b0e      	ldr	r3, [pc, #56]	; (84c <motor_disable+0x3c>)
void motor_disable(void){
     814:	b510      	push	{r4, lr}
	pulsating_motor_routine = false;
     816:	7019      	strb	r1, [r3, #0]
	motor_toggle_count = 0;
     818:	4b0d      	ldr	r3, [pc, #52]	; (850 <motor_disable+0x40>)
	motor_running = false;

	tc_set_compare_value (&pwm_generator_instance,TC_COMPARE_CAPTURE_CHANNEL_0,INITIAL_DUTY_CYCLE);
     81a:	4c0e      	ldr	r4, [pc, #56]	; (854 <motor_disable+0x44>)
	motor_toggle_count = 0;
     81c:	7019      	strb	r1, [r3, #0]
	motor_running = false;
     81e:	4b0e      	ldr	r3, [pc, #56]	; (858 <motor_disable+0x48>)
	tc_set_compare_value (&pwm_generator_instance,TC_COMPARE_CAPTURE_CHANNEL_0,INITIAL_DUTY_CYCLE);
     820:	2215      	movs	r2, #21
     822:	0020      	movs	r0, r4
	motor_running = false;
     824:	7019      	strb	r1, [r3, #0]
	tc_set_compare_value (&pwm_generator_instance,TC_COMPARE_CAPTURE_CHANNEL_0,INITIAL_DUTY_CYCLE);
     826:	f001 fb1f 	bl	1e68 <tc_set_compare_value>
     82a:	6823      	ldr	r3, [r4, #0]
	return (tc_module->STATUS.reg & TC_STATUS_SYNCBUSY);
     82c:	7bda      	ldrb	r2, [r3, #15]
	Assert(module_inst->hw);

	/* Get a pointer to the module's hardware instance */
	TcCount8 *const tc_module = &(module_inst->hw->COUNT8);

	while (tc_is_syncing(module_inst)) {
     82e:	b252      	sxtb	r2, r2
     830:	2a00      	cmp	r2, #0
     832:	dbfb      	blt.n	82c <motor_disable+0x1c>
		/* Wait for sync */
	}

	/* Disbale interrupt */
	tc_module->INTENCLR.reg = TC_INTENCLR_MASK;
     834:	223b      	movs	r2, #59	; 0x3b
	/* Clear interrupt flag */
	tc_module->INTFLAG.reg = TC_INTFLAG_MASK;

	/* Disable TC module */
	tc_module->CTRLA.reg  &= ~TC_CTRLA_ENABLE;
     836:	2102      	movs	r1, #2
	tc_module->INTENCLR.reg = TC_INTENCLR_MASK;
     838:	731a      	strb	r2, [r3, #12]
	tc_module->INTFLAG.reg = TC_INTFLAG_MASK;
     83a:	739a      	strb	r2, [r3, #14]
	tc_module->CTRLA.reg  &= ~TC_CTRLA_ENABLE;
     83c:	881a      	ldrh	r2, [r3, #0]
     83e:	438a      	bics	r2, r1
     840:	801a      	strh	r2, [r3, #0]
	} else {
		port_base->OUTCLR.reg = pin_mask;
     842:	2240      	movs	r2, #64	; 0x40
     844:	4b05      	ldr	r3, [pc, #20]	; (85c <motor_disable+0x4c>)
     846:	615a      	str	r2, [r3, #20]
	tc_disable (&pwm_generator_instance);
	port_pin_set_output_level(MOTOR_NSLEEP_PIN,LOW);

}
     848:	bd10      	pop	{r4, pc}
     84a:	46c0      	nop			; (mov r8, r8)
     84c:	20000046 	.word	0x20000046
     850:	20000045 	.word	0x20000045
     854:	200001e4 	.word	0x200001e4
     858:	20000044 	.word	0x20000044
     85c:	41004400 	.word	0x41004400

00000860 <cycle_pwm_motor>:



void cycle_pwm_motor (void)
{
     860:	b510      	push	{r4, lr}
	{
		if (motor_running)
     862:	4b16      	ldr	r3, [pc, #88]	; (8bc <cycle_pwm_motor+0x5c>)
     864:	781b      	ldrb	r3, [r3, #0]
     866:	2b00      	cmp	r3, #0
     868:	d00a      	beq.n	880 <cycle_pwm_motor+0x20>
		{
			
			if (motor_toggle_count == 2)
     86a:	4b15      	ldr	r3, [pc, #84]	; (8c0 <cycle_pwm_motor+0x60>)
     86c:	781b      	ldrb	r3, [r3, #0]
     86e:	2b02      	cmp	r3, #2
     870:	d107      	bne.n	882 <cycle_pwm_motor+0x22>
			{
				tc_set_compare_value (&pwm_generator_instance,
     872:	2222      	movs	r2, #34	; 0x22
     874:	2100      	movs	r1, #0
     876:	4813      	ldr	r0, [pc, #76]	; (8c4 <cycle_pwm_motor+0x64>)
     878:	f001 faf6 	bl	1e68 <tc_set_compare_value>
				TC_COMPARE_CAPTURE_CHANNEL_0, FIRST_DUTY_CYCLE);
				set_motor_speed_2_indication();
     87c:	f001 fc58 	bl	2130 <set_motor_speed_2_indication>
				
			}
		}
	}

}
     880:	bd10      	pop	{r4, pc}
			else if (motor_toggle_count == 3)
     882:	2b03      	cmp	r3, #3
     884:	d107      	bne.n	896 <cycle_pwm_motor+0x36>
				tc_set_compare_value (&pwm_generator_instance,
     886:	224d      	movs	r2, #77	; 0x4d
     888:	2100      	movs	r1, #0
     88a:	480e      	ldr	r0, [pc, #56]	; (8c4 <cycle_pwm_motor+0x64>)
     88c:	f001 faec 	bl	1e68 <tc_set_compare_value>
				set_motor_speed_3_indication();
     890:	f001 fc7a 	bl	2188 <set_motor_speed_3_indication>
     894:	e7f4      	b.n	880 <cycle_pwm_motor+0x20>
			else if (motor_toggle_count == 4)
     896:	2b04      	cmp	r3, #4
     898:	d10a      	bne.n	8b0 <cycle_pwm_motor+0x50>
				pulsating_motor_routine = true;
     89a:	2201      	movs	r2, #1
     89c:	4b0a      	ldr	r3, [pc, #40]	; (8c8 <cycle_pwm_motor+0x68>)
				tc_set_compare_value (&pwm_generator_instance,
     89e:	2100      	movs	r1, #0
				pulsating_motor_routine = true;
     8a0:	701a      	strb	r2, [r3, #0]
				tc_set_compare_value (&pwm_generator_instance,
     8a2:	4808      	ldr	r0, [pc, #32]	; (8c4 <cycle_pwm_motor+0x64>)
     8a4:	324c      	adds	r2, #76	; 0x4c
     8a6:	f001 fadf 	bl	1e68 <tc_set_compare_value>
				set_motor_pulsating_indication();
     8aa:	f001 fc99 	bl	21e0 <set_motor_pulsating_indication>
     8ae:	e7e7      	b.n	880 <cycle_pwm_motor+0x20>
			else if (motor_toggle_count > 4)
     8b0:	2b04      	cmp	r3, #4
     8b2:	d9e5      	bls.n	880 <cycle_pwm_motor+0x20>
					motor_disable();
     8b4:	f7ff ffac 	bl	810 <motor_disable>
}
     8b8:	e7e2      	b.n	880 <cycle_pwm_motor+0x20>
     8ba:	46c0      	nop			; (mov r8, r8)
     8bc:	20000044 	.word	0x20000044
     8c0:	20000045 	.word	0x20000045
     8c4:	200001e4 	.word	0x200001e4
     8c8:	20000046 	.word	0x20000046

000008cc <toggle_nsleep>:



 void toggle_nsleep(void){
	 static bool PULSATING_MOTOR = false;
	 if (pulsating_motor_routine){
     8cc:	4b08      	ldr	r3, [pc, #32]	; (8f0 <toggle_nsleep+0x24>)
     8ce:	781b      	ldrb	r3, [r3, #0]
     8d0:	2b00      	cmp	r3, #0
     8d2:	d008      	beq.n	8e6 <toggle_nsleep+0x1a>
		 if (PULSATING_MOTOR){
     8d4:	4b07      	ldr	r3, [pc, #28]	; (8f4 <toggle_nsleep+0x28>)
     8d6:	4a08      	ldr	r2, [pc, #32]	; (8f8 <toggle_nsleep+0x2c>)
     8d8:	7818      	ldrb	r0, [r3, #0]
     8da:	2140      	movs	r1, #64	; 0x40
     8dc:	2800      	cmp	r0, #0
     8de:	d003      	beq.n	8e8 <toggle_nsleep+0x1c>
     8e0:	6151      	str	r1, [r2, #20]
			 port_pin_set_output_level(MOTOR_NSLEEP_PIN,LOW);
			 PULSATING_MOTOR = false;
     8e2:	2200      	movs	r2, #0
     8e4:	701a      	strb	r2, [r3, #0]
			 }else{
			 PULSATING_MOTOR = true;
			 port_pin_set_output_level(MOTOR_NSLEEP_PIN,HIGH);
		 }
	 }
 }
     8e6:	4770      	bx	lr
			 PULSATING_MOTOR = true;
     8e8:	2001      	movs	r0, #1
     8ea:	7018      	strb	r0, [r3, #0]
		port_base->OUTSET.reg = pin_mask;
     8ec:	6191      	str	r1, [r2, #24]
 }
     8ee:	e7fa      	b.n	8e6 <toggle_nsleep+0x1a>
     8f0:	20000046 	.word	0x20000046
     8f4:	20000043 	.word	0x20000043
     8f8:	41004400 	.word	0x41004400

000008fc <regular_routine>:

 }



 void regular_routine(void) {
     8fc:	b510      	push	{r4, lr}
	 static bool motor_status_changed = false;
	 static bool led_button_status_changed = false;

	 //-------------------------------------------------------------

	 if (is_button_one_pressed()) {
     8fe:	f7ff fe57 	bl	5b0 <is_button_one_pressed>
     902:	2800      	cmp	r0, #0
     904:	d007      	beq.n	916 <regular_routine+0x1a>
		if (LongPressB1Flag) {
     906:	4c2b      	ldr	r4, [pc, #172]	; (9b4 <regular_routine+0xb8>)
     908:	7823      	ldrb	r3, [r4, #0]
     90a:	2b00      	cmp	r3, #0
     90c:	d02f      	beq.n	96e <regular_routine+0x72>
	 motor_disable();						// shutdown pwm motor
     90e:	f7ff ff7f 	bl	810 <motor_disable>
			system_inactive();
			LongPressB1Flag = false;								// ALLOW IT TO CYCLE AGAIN
     912:	2300      	movs	r3, #0
     914:	7023      	strb	r3, [r4, #0]
				}
		}
		 }
	 }

	 if (BUTTON_ONE_RELEASE_STATUS) {
     916:	4b28      	ldr	r3, [pc, #160]	; (9b8 <regular_routine+0xbc>)
     918:	781b      	ldrb	r3, [r3, #0]
     91a:	2b00      	cmp	r3, #0
     91c:	d002      	beq.n	924 <regular_routine+0x28>
		 motor_status_changed = false;
     91e:	2200      	movs	r2, #0
     920:	4b26      	ldr	r3, [pc, #152]	; (9bc <regular_routine+0xc0>)
     922:	701a      	strb	r2, [r3, #0]
	 }

	 //-------------------------------------------------------------

	 if (is_button_two_pressed()) {
     924:	f7ff fe7a 	bl	61c <is_button_two_pressed>
     928:	2800      	cmp	r0, #0
     92a:	d007      	beq.n	93c <regular_routine+0x40>
		 if (LongPressB2Flag) {
     92c:	4c24      	ldr	r4, [pc, #144]	; (9c0 <regular_routine+0xc4>)
     92e:	7823      	ldrb	r3, [r4, #0]
     930:	2b00      	cmp	r3, #0
     932:	d030      	beq.n	996 <regular_routine+0x9a>
	 motor_disable();						// shutdown pwm motor
     934:	f7ff ff6c 	bl	810 <motor_disable>
			 system_inactive();
			 LongPressB2Flag = false;															// ALLOW IT TO CYCLE AGAIN
     938:	2300      	movs	r3, #0
     93a:	7023      	strb	r3, [r4, #0]
				 led_button_status_changed = true;
				 cycle_pwm_led();
			 }
		 }
	 }
	 if (BUTTON_TWO_RELEASE_STATUS) {
     93c:	4b21      	ldr	r3, [pc, #132]	; (9c4 <regular_routine+0xc8>)
     93e:	781b      	ldrb	r3, [r3, #0]
     940:	2b00      	cmp	r3, #0
     942:	d002      	beq.n	94a <regular_routine+0x4e>
		 led_button_status_changed = false;
     944:	2200      	movs	r2, #0
     946:	4b20      	ldr	r3, [pc, #128]	; (9c8 <regular_routine+0xcc>)
     948:	701a      	strb	r2, [r3, #0]
	 }

	 if (Vbus_State == false) {
     94a:	4b20      	ldr	r3, [pc, #128]	; (9cc <regular_routine+0xd0>)
     94c:	781b      	ldrb	r3, [r3, #0]
     94e:	2b00      	cmp	r3, #0
     950:	d00c      	beq.n	96c <regular_routine+0x70>
		;																						// Enable Motor PWM
	 } else {
	
		if (motor_running){
     952:	4b1f      	ldr	r3, [pc, #124]	; (9d0 <regular_routine+0xd4>)
     954:	781b      	ldrb	r3, [r3, #0]
     956:	2b00      	cmp	r3, #0
     958:	d001      	beq.n	95e <regular_routine+0x62>
	 motor_disable();						// shutdown pwm motor
     95a:	f7ff ff59 	bl	810 <motor_disable>
			system_inactive();
		}
																								// ITS PLUGGED IN
		if (Chargn_On_State == false) {															// battery charging (plugged in)
     95e:	4b1d      	ldr	r3, [pc, #116]	; (9d4 <regular_routine+0xd8>)
     960:	781a      	ldrb	r2, [r3, #0]
     962:	4b1d      	ldr	r3, [pc, #116]	; (9d8 <regular_routine+0xdc>)
     964:	2a00      	cmp	r2, #0
     966:	d123      	bne.n	9b0 <regular_routine+0xb4>
			BATTERY_CHARGING = true;															// show battery charge routine
     968:	3201      	adds	r2, #1
		} else {
			BATTERY_CHARGING = false;
     96a:	701a      	strb	r2, [r3, #0]
		}
		
	}
 }
     96c:	bd10      	pop	{r4, pc}
			if (!motor_status_changed) {
     96e:	4a13      	ldr	r2, [pc, #76]	; (9bc <regular_routine+0xc0>)
     970:	7813      	ldrb	r3, [r2, #0]
     972:	2b00      	cmp	r3, #0
     974:	d1cf      	bne.n	916 <regular_routine+0x1a>
				motor_toggle_count++;
     976:	4919      	ldr	r1, [pc, #100]	; (9dc <regular_routine+0xe0>)
     978:	780b      	ldrb	r3, [r1, #0]
     97a:	3301      	adds	r3, #1
     97c:	700b      	strb	r3, [r1, #0]
				motor_status_changed = true;
     97e:	2301      	movs	r3, #1
     980:	7013      	strb	r3, [r2, #0]
				if (!motor_running) {
     982:	4b13      	ldr	r3, [pc, #76]	; (9d0 <regular_routine+0xd4>)
     984:	781b      	ldrb	r3, [r3, #0]
     986:	2b00      	cmp	r3, #0
     988:	d102      	bne.n	990 <regular_routine+0x94>
					motor_enable();
     98a:	f7ff ff27 	bl	7dc <motor_enable>
     98e:	e7c2      	b.n	916 <regular_routine+0x1a>
					cycle_pwm_motor();
     990:	f7ff ff66 	bl	860 <cycle_pwm_motor>
     994:	e7bf      	b.n	916 <regular_routine+0x1a>
			 if (!led_button_status_changed) {
     996:	4a0c      	ldr	r2, [pc, #48]	; (9c8 <regular_routine+0xcc>)
     998:	7813      	ldrb	r3, [r2, #0]
     99a:	2b00      	cmp	r3, #0
     99c:	d1ce      	bne.n	93c <regular_routine+0x40>
				 pwm_led_toggle_count++;
     99e:	4910      	ldr	r1, [pc, #64]	; (9e0 <regular_routine+0xe4>)
     9a0:	780b      	ldrb	r3, [r1, #0]
     9a2:	3301      	adds	r3, #1
     9a4:	700b      	strb	r3, [r1, #0]
				 led_button_status_changed = true;
     9a6:	2301      	movs	r3, #1
     9a8:	7013      	strb	r3, [r2, #0]
				 cycle_pwm_led();
     9aa:	f7ff febd 	bl	728 <cycle_pwm_led>
     9ae:	e7c5      	b.n	93c <regular_routine+0x40>
			BATTERY_CHARGING = false;
     9b0:	2200      	movs	r2, #0
     9b2:	e7da      	b.n	96a <regular_routine+0x6e>
     9b4:	20000040 	.word	0x20000040
     9b8:	2000003d 	.word	0x2000003d
     9bc:	2000004c 	.word	0x2000004c
     9c0:	20000041 	.word	0x20000041
     9c4:	2000003f 	.word	0x2000003f
     9c8:	2000004b 	.word	0x2000004b
     9cc:	20000201 	.word	0x20000201
     9d0:	20000044 	.word	0x20000044
     9d4:	20000202 	.word	0x20000202
     9d8:	20000048 	.word	0x20000048
     9dc:	20000045 	.word	0x20000045
     9e0:	20000042 	.word	0x20000042

000009e4 <get_battery_level>:


void get_battery_level(void) {
     9e4:	b530      	push	{r4, r5, lr}

	if (!motor_running) {
     9e6:	4b0f      	ldr	r3, [pc, #60]	; (a24 <get_battery_level+0x40>)
     9e8:	781b      	ldrb	r3, [r3, #0]
     9ea:	2b00      	cmp	r3, #0
     9ec:	d10b      	bne.n	a06 <get_battery_level+0x22>
		if (adc_result <= VOLTAGE_THRESH_LOWEST) {
     9ee:	4a0e      	ldr	r2, [pc, #56]	; (a28 <get_battery_level+0x44>)
     9f0:	4d0e      	ldr	r5, [pc, #56]	; (a2c <get_battery_level+0x48>)
     9f2:	8814      	ldrh	r4, [r2, #0]
     9f4:	480e      	ldr	r0, [pc, #56]	; (a30 <get_battery_level+0x4c>)
     9f6:	490f      	ldr	r1, [pc, #60]	; (a34 <get_battery_level+0x50>)
     9f8:	4a0f      	ldr	r2, [pc, #60]	; (a38 <get_battery_level+0x54>)
     9fa:	42ac      	cmp	r4, r5
     9fc:	d804      	bhi.n	a08 <get_battery_level+0x24>
			// LOWEST SITUATION
			BATTERY_LOWEST = true;
     9fe:	2401      	movs	r4, #1
			BATTERY_LOW = false;
     a00:	700b      	strb	r3, [r1, #0]
			BATTERY_LOWEST = true;
     a02:	7004      	strb	r4, [r0, #0]
		}
		else { // adc_result > VOLTAGE_THRESH_MAX
			// FULLY CHARGED SITUATION
			BATTERY_LOWEST = false;
			BATTERY_LOW = false;
			BATTERY_CHARGED = true;
     a04:	7013      	strb	r3, [r2, #0]
		}
	}
}
     a06:	bd30      	pop	{r4, r5, pc}
		else if (adc_result <= VOLTAGE_THRESH_LOW) { // Ensure adc_result > VOLTAGE_THRESH_LOWEST
     a08:	4d0c      	ldr	r5, [pc, #48]	; (a3c <get_battery_level+0x58>)
     a0a:	42ac      	cmp	r4, r5
     a0c:	d803      	bhi.n	a16 <get_battery_level+0x32>
			BATTERY_LOWEST = false;
     a0e:	7003      	strb	r3, [r0, #0]
			BATTERY_LOW = true;
     a10:	2001      	movs	r0, #1
     a12:	7008      	strb	r0, [r1, #0]
     a14:	e7f6      	b.n	a04 <get_battery_level+0x20>
		else if (adc_result < VOLTAGE_THRESH_MAX) { // Ensure adc_result > VOLTAGE_THRESH_LOW
     a16:	4d0a      	ldr	r5, [pc, #40]	; (a40 <get_battery_level+0x5c>)
			BATTERY_LOWEST = false;
     a18:	7003      	strb	r3, [r0, #0]
			BATTERY_LOW = false;
     a1a:	700b      	strb	r3, [r1, #0]
		else if (adc_result < VOLTAGE_THRESH_MAX) { // Ensure adc_result > VOLTAGE_THRESH_LOW
     a1c:	42ac      	cmp	r4, r5
     a1e:	d9f1      	bls.n	a04 <get_battery_level+0x20>
			BATTERY_CHARGED = true;
     a20:	2301      	movs	r3, #1
     a22:	e7ef      	b.n	a04 <get_battery_level+0x20>
     a24:	20000044 	.word	0x20000044
     a28:	20000094 	.word	0x20000094
     a2c:	00000c7a 	.word	0x00000c7a
     a30:	2000004a 	.word	0x2000004a
     a34:	20000049 	.word	0x20000049
     a38:	20000047 	.word	0x20000047
     a3c:	00000d2c 	.word	0x00000d2c
     a40:	00000e8e 	.word	0x00000e8e

00000a44 <system_logic>:
 /************************************************************************/
 /* LOGIC MACHINE		                                                */
 /************************************************************************/


 void system_logic(void) {
     a44:	b510      	push	{r4, lr}
	 if (SYS_TICK_10MS) {
     a46:	4b0b      	ldr	r3, [pc, #44]	; (a74 <system_logic+0x30>)
     a48:	781a      	ldrb	r2, [r3, #0]
     a4a:	2a00      	cmp	r2, #0
     a4c:	d005      	beq.n	a5a <system_logic+0x16>
		 SYS_TICK_10MS = false;
     a4e:	2200      	movs	r2, #0
     a50:	701a      	strb	r2, [r3, #0]
		 system_state();						// Get latest system_state
     a52:	f000 f957 	bl	d04 <system_state>
		 regular_routine();
     a56:	f7ff ff51 	bl	8fc <regular_routine>
	 }

	 if (SYS_TICK_200MS) {
     a5a:	4b07      	ldr	r3, [pc, #28]	; (a78 <system_logic+0x34>)
     a5c:	781a      	ldrb	r2, [r3, #0]
     a5e:	2a00      	cmp	r2, #0
     a60:	d007      	beq.n	a72 <system_logic+0x2e>
		 SYS_TICK_200MS = false;
     a62:	2200      	movs	r2, #0
     a64:	701a      	strb	r2, [r3, #0]
		 toggle_nsleep();
     a66:	f7ff ff31 	bl	8cc <toggle_nsleep>
		 sample_adc();
     a6a:	f7ff fb6f 	bl	14c <sample_adc>
		 get_battery_level();
     a6e:	f7ff ffb9 	bl	9e4 <get_battery_level>
	 }

     a72:	bd10      	pop	{r4, pc}
     a74:	2000004e 	.word	0x2000004e
     a78:	2000004f 	.word	0x2000004f

00000a7c <sys_tc_callback>:
	static int tick_count_100ms;
	static int tick_count_200ms;
	//static int tick_count_500ms;
	//static int tick_count_1000ms;

	tick_count_1ms++;
     a7c:	4919      	ldr	r1, [pc, #100]	; (ae4 <sys_tc_callback+0x68>)
     a7e:	680b      	ldr	r3, [r1, #0]
     a80:	1c5a      	adds	r2, r3, #1
     a82:	600a      	str	r2, [r1, #0]
     a84:	4b18      	ldr	r3, [pc, #96]	; (ae8 <sys_tc_callback+0x6c>)
	
	
	//port_pin_toggle_output_level (LED0_PIN);					// visually check sys clock on PA16
	
	// Check for 10ms interval
	if (tick_count_1ms >= 10)
     a86:	2a09      	cmp	r2, #9
     a88:	dd07      	ble.n	a9a <sys_tc_callback+0x1e>
	{
		tick_count_10ms++;
     a8a:	681a      	ldr	r2, [r3, #0]
     a8c:	3201      	adds	r2, #1
     a8e:	601a      	str	r2, [r3, #0]
		tick_count_1ms = 0;
     a90:	2200      	movs	r2, #0
     a92:	600a      	str	r2, [r1, #0]
		SYS_TICK_10MS = true;									// Flag for 10ms interval
     a94:	2101      	movs	r1, #1
     a96:	4a15      	ldr	r2, [pc, #84]	; (aec <sys_tc_callback+0x70>)
     a98:	7011      	strb	r1, [r2, #0]
		//port_pin_toggle_output_level (LED0_PIN);				// visually check sys clock on PA16
	}
	
	// Check for 50ms interval
	if (tick_count_10ms >= 5)
     a9a:	6819      	ldr	r1, [r3, #0]
     a9c:	4a14      	ldr	r2, [pc, #80]	; (af0 <sys_tc_callback+0x74>)
     a9e:	2904      	cmp	r1, #4
     aa0:	dd07      	ble.n	ab2 <sys_tc_callback+0x36>
	{
		tick_count_50ms++;
     aa2:	6811      	ldr	r1, [r2, #0]
     aa4:	3101      	adds	r1, #1
     aa6:	6011      	str	r1, [r2, #0]
		tick_count_10ms = 0;
     aa8:	2100      	movs	r1, #0
     aaa:	6019      	str	r1, [r3, #0]
		SYS_TICK_50MS = true;									// Flag for 50ms interval
     aac:	4b11      	ldr	r3, [pc, #68]	; (af4 <sys_tc_callback+0x78>)
     aae:	3101      	adds	r1, #1
     ab0:	7019      	strb	r1, [r3, #0]
		//port_pin_toggle_output_level (LED0_PIN);				// visually check sys clock on PA16
	}
	
	// Check for 100ms interval
	if (tick_count_50ms >= 2)
     ab2:	6811      	ldr	r1, [r2, #0]
     ab4:	4b10      	ldr	r3, [pc, #64]	; (af8 <sys_tc_callback+0x7c>)
     ab6:	2901      	cmp	r1, #1
     ab8:	dd07      	ble.n	aca <sys_tc_callback+0x4e>
	{
		tick_count_100ms++;
     aba:	6819      	ldr	r1, [r3, #0]
     abc:	3101      	adds	r1, #1
     abe:	6019      	str	r1, [r3, #0]
		tick_count_50ms = 0;
     ac0:	2100      	movs	r1, #0
     ac2:	6011      	str	r1, [r2, #0]
		SYS_TICK_100MS = true;									// Flag for 100ms interval
     ac4:	4a0d      	ldr	r2, [pc, #52]	; (afc <sys_tc_callback+0x80>)
     ac6:	3101      	adds	r1, #1
     ac8:	7011      	strb	r1, [r2, #0]
		//port_pin_toggle_output_level (LED0_PIN);				// visually check sys clock on PA16
	}
	
	
	// Check for 200ms interval
	if (tick_count_100ms >= 2)
     aca:	681a      	ldr	r2, [r3, #0]
     acc:	2a01      	cmp	r2, #1
     ace:	dd08      	ble.n	ae2 <sys_tc_callback+0x66>
	{
		tick_count_200ms++;
     ad0:	490b      	ldr	r1, [pc, #44]	; (b00 <sys_tc_callback+0x84>)
     ad2:	680a      	ldr	r2, [r1, #0]
     ad4:	3201      	adds	r2, #1
     ad6:	600a      	str	r2, [r1, #0]
		tick_count_100ms = 0;
     ad8:	2200      	movs	r2, #0
     ada:	601a      	str	r2, [r3, #0]
		SYS_TICK_200MS = true;									// Flag for 200ms interval
     adc:	4b09      	ldr	r3, [pc, #36]	; (b04 <sys_tc_callback+0x88>)
     ade:	3201      	adds	r2, #1
     ae0:	701a      	strb	r2, [r3, #0]
		//tick_count_500ms = 0;
		//SYS_TICK_1000MS = true;                                 // Flag for 1000ms interval
		////port_pin_toggle_output_level (LED0_PIN);               // visually check sys clock on PA16
	//}
	
}
     ae2:	4770      	bx	lr
     ae4:	2000005c 	.word	0x2000005c
     ae8:	20000058 	.word	0x20000058
     aec:	2000004e 	.word	0x2000004e
     af0:	20000064 	.word	0x20000064
     af4:	20000050 	.word	0x20000050
     af8:	20000054 	.word	0x20000054
     afc:	2000004d 	.word	0x2000004d
     b00:	20000060 	.word	0x20000060
     b04:	2000004f 	.word	0x2000004f

00000b08 <configure_port_pins>:
{
     b08:	b5f7      	push	{r0, r1, r2, r4, r5, r6, r7, lr}
	config_port_pin.input_pull = PORT_PIN_PULL_DOWN;
     b0a:	2502      	movs	r5, #2
	config->direction  = PORT_PIN_DIR_INPUT;
     b0c:	2700      	movs	r7, #0
	config_port_pin.direction  = PORT_PIN_DIR_OUTPUT;
     b0e:	2601      	movs	r6, #1
     b10:	ac01      	add	r4, sp, #4
	port_pin_set_config(VBUS_PIN, &config_port_pin);
     b12:	0021      	movs	r1, r4
     b14:	201b      	movs	r0, #27
     b16:	7027      	strb	r7, [r4, #0]
	config->powersave  = false;
     b18:	70a7      	strb	r7, [r4, #2]
	config_port_pin.input_pull = PORT_PIN_PULL_DOWN;
     b1a:	7065      	strb	r5, [r4, #1]
	port_pin_set_config(VBUS_PIN, &config_port_pin);
     b1c:	f000 f92a 	bl	d74 <port_pin_set_config>
	port_pin_set_config(MOTOR_NSLEEP_PIN, &config_port_pin);
     b20:	0021      	movs	r1, r4
     b22:	2006      	movs	r0, #6
	config_port_pin.direction  = PORT_PIN_DIR_OUTPUT;
     b24:	7026      	strb	r6, [r4, #0]
	config_port_pin.input_pull = PORT_PIN_PULL_DOWN;							// START AT PULL DOWN.
     b26:	7065      	strb	r5, [r4, #1]
	port_pin_set_config(MOTOR_NSLEEP_PIN, &config_port_pin);
     b28:	f000 f924 	bl	d74 <port_pin_set_config>
	port_pin_set_config(SWITCH_OFF_PIN, &config_port_pin);
     b2c:	0021      	movs	r1, r4
     b2e:	2007      	movs	r0, #7
	config_port_pin.direction  = PORT_PIN_DIR_OUTPUT;
     b30:	7026      	strb	r6, [r4, #0]
	config_port_pin.input_pull = PORT_PIN_PULL_UP;								// START AT PULL UP.
     b32:	7066      	strb	r6, [r4, #1]
	port_pin_set_config(SWITCH_OFF_PIN, &config_port_pin);
     b34:	f000 f91e 	bl	d74 <port_pin_set_config>
	port_pin_set_config(BUTTON_2, &config_port_pin);
     b38:	0021      	movs	r1, r4
     b3a:	200f      	movs	r0, #15
	config_port_pin.direction  = PORT_PIN_DIR_INPUT;
     b3c:	7027      	strb	r7, [r4, #0]
	config_port_pin.input_pull = PORT_PIN_PULL_DOWN;							// START AT PULL DOWN.
     b3e:	7065      	strb	r5, [r4, #1]
	port_pin_set_config(BUTTON_2, &config_port_pin);
     b40:	f000 f918 	bl	d74 <port_pin_set_config>
	port_pin_set_config(CHARGING_PIN, &config_port_pin);
     b44:	0021      	movs	r1, r4
     b46:	200b      	movs	r0, #11
	config_port_pin.direction  = PORT_PIN_DIR_INPUT;
     b48:	7027      	strb	r7, [r4, #0]
	config_port_pin.input_pull = PORT_PIN_PULL_DOWN;							// START AT PULL DOWN.
     b4a:	7065      	strb	r5, [r4, #1]
	port_pin_set_config(CHARGING_PIN, &config_port_pin);
     b4c:	f000 f912 	bl	d74 <port_pin_set_config>
	port_pin_set_config(CHARGN_OFF_PIN, &config_port_pin);
     b50:	0021      	movs	r1, r4
     b52:	2003      	movs	r0, #3
	config_port_pin.direction  = PORT_PIN_DIR_OUTPUT;
     b54:	7026      	strb	r6, [r4, #0]
	config_port_pin.input_pull = PORT_PIN_PULL_DOWN;							// START AT PULL DOWN.
     b56:	7065      	strb	r5, [r4, #1]
	port_pin_set_config(CHARGN_OFF_PIN, &config_port_pin);
     b58:	f000 f90c 	bl	d74 <port_pin_set_config>
	port_pin_set_config(SAMPLE_ADC_PIN, &config_port_pin);
     b5c:	0028      	movs	r0, r5
     b5e:	0021      	movs	r1, r4
	config_port_pin.direction  = PORT_PIN_DIR_INPUT;
     b60:	7027      	strb	r7, [r4, #0]
	config_port_pin.input_pull = PORT_PIN_PULL_DOWN;							// START AT PULL DOWN.
     b62:	7065      	strb	r5, [r4, #1]
	port_pin_set_config(SAMPLE_ADC_PIN, &config_port_pin);
     b64:	f000 f906 	bl	d74 <port_pin_set_config>
	port_pin_set_config(XPLAINED_LED, &config_port_pin);
     b68:	0021      	movs	r1, r4
     b6a:	2010      	movs	r0, #16
	config_port_pin.direction  = PORT_PIN_DIR_OUTPUT;
     b6c:	7026      	strb	r6, [r4, #0]
	port_pin_set_config(XPLAINED_LED, &config_port_pin);
     b6e:	f000 f901 	bl	d74 <port_pin_set_config>
	port_pin_set_config(BUTTON_1, &config_port_pin);
     b72:	0021      	movs	r1, r4
     b74:	200e      	movs	r0, #14
	config_port_pin.direction  = PORT_PIN_DIR_INPUT;
     b76:	7027      	strb	r7, [r4, #0]
	config_port_pin.input_pull = PORT_PIN_PULL_UP;
     b78:	7066      	strb	r6, [r4, #1]
	port_pin_set_config(BUTTON_1, &config_port_pin);
     b7a:	f000 f8fb 	bl	d74 <port_pin_set_config>
}
     b7e:	bdf7      	pop	{r0, r1, r2, r4, r5, r6, r7, pc}

00000b80 <configure_system_tc>:
	config->clock_source               = GCLK_GENERATOR_0;
     b80:	2300      	movs	r3, #0
 {
     b82:	b510      	push	{r4, lr}
     b84:	b08e      	sub	sp, #56	; 0x38
     b86:	aa01      	add	r2, sp, #4
	config->counter_16_bit.value                   = 0x0000;
     b88:	8513      	strh	r3, [r2, #40]	; 0x28
	config->clock_source               = GCLK_GENERATOR_0;
     b8a:	7013      	strb	r3, [r2, #0]
	config->wave_generation            = TC_WAVE_GENERATION_NORMAL_FREQ;
     b8c:	7193      	strb	r3, [r2, #6]
	config->reload_action              = TC_RELOAD_ACTION_GCLK;
     b8e:	8113      	strh	r3, [r2, #8]
	config->run_in_standby             = false;
     b90:	7053      	strb	r3, [r2, #1]
	config->waveform_invert_output     = TC_WAVEFORM_INVERT_OUTPUT_NONE;
     b92:	7293      	strb	r3, [r2, #10]
	config->enable_capture_on_channel[TC_COMPARE_CAPTURE_CHANNEL_0] = false;
     b94:	72d3      	strb	r3, [r2, #11]
	config->enable_capture_on_channel[TC_COMPARE_CAPTURE_CHANNEL_1] = false;
     b96:	7313      	strb	r3, [r2, #12]
	config->count_direction            = TC_COUNT_DIRECTION_UP;
     b98:	7393      	strb	r3, [r2, #14]
	config->oneshot                    = false;
     b9a:	7353      	strb	r3, [r2, #13]
	config->pwm_channel[TC_COMPARE_CAPTURE_CHANNEL_0].pin_out = 0;
     b9c:	6153      	str	r3, [r2, #20]
	config->pwm_channel[TC_COMPARE_CAPTURE_CHANNEL_0].pin_mux = 0;
     b9e:	6193      	str	r3, [r2, #24]
	config->pwm_channel[TC_COMPARE_CAPTURE_CHANNEL_1].enabled = false;
     ba0:	7713      	strb	r3, [r2, #28]
	config->pwm_channel[TC_COMPARE_CAPTURE_CHANNEL_1].pin_out = 0;
     ba2:	6213      	str	r3, [r2, #32]
	config->pwm_channel[TC_COMPARE_CAPTURE_CHANNEL_1].pin_mux = 0;
     ba4:	6253      	str	r3, [r2, #36]	; 0x24
		[TC_COMPARE_CAPTURE_CHANNEL_0]                        = 0x0000;
     ba6:	8553      	strh	r3, [r2, #42]	; 0x2a
		[TC_COMPARE_CAPTURE_CHANNEL_1]                        = 0x0000;
     ba8:	8593      	strh	r3, [r2, #44]	; 0x2c
	 config_tc.counter_size = TC_COUNTER_SIZE;
     baa:	3304      	adds	r3, #4
     bac:	7093      	strb	r3, [r2, #2]
	 config_tc.clock_prescaler = TC_CLOCK_PRESCALER;
     bae:	23a0      	movs	r3, #160	; 0xa0
     bb0:	00db      	lsls	r3, r3, #3
     bb2:	8093      	strh	r3, [r2, #4]
	 config_tc.counter_8_bit.period = SYSTEM_TC_PERIOD_VALUE;
     bb4:	232d      	movs	r3, #45	; 0x2d
     bb6:	216f      	movs	r1, #111	; 0x6f
     bb8:	446b      	add	r3, sp
     bba:	7019      	strb	r1, [r3, #0]
	 config_tc.pwm_channel[TC_COMPARE_CAPTURE_CHANNEL_0].enabled = true;
     bbc:	2301      	movs	r3, #1
	 tc_init (&system_timer_instance, SYSTEM_TC, &config_tc);
     bbe:	4c08      	ldr	r4, [pc, #32]	; (be0 <configure_system_tc+0x60>)
	 config_tc.pwm_channel[TC_COMPARE_CAPTURE_CHANNEL_0].enabled = true;
     bc0:	7413      	strb	r3, [r2, #16]
	 tc_init (&system_timer_instance, SYSTEM_TC, &config_tc);
     bc2:	4908      	ldr	r1, [pc, #32]	; (be4 <configure_system_tc+0x64>)
     bc4:	0020      	movs	r0, r4
     bc6:	f001 f83b 	bl	1c40 <tc_init>
     bca:	6823      	ldr	r3, [r4, #0]
	return (tc_module->STATUS.reg & TC_STATUS_SYNCBUSY);
     bcc:	7bda      	ldrb	r2, [r3, #15]
	while (tc_is_syncing(module_inst)) {
     bce:	b252      	sxtb	r2, r2
     bd0:	2a00      	cmp	r2, #0
     bd2:	dbfb      	blt.n	bcc <configure_system_tc+0x4c>
	tc_module->CTRLA.reg |= TC_CTRLA_ENABLE;
     bd4:	2202      	movs	r2, #2
     bd6:	8819      	ldrh	r1, [r3, #0]
     bd8:	430a      	orrs	r2, r1
     bda:	801a      	strh	r2, [r3, #0]
 }
     bdc:	b00e      	add	sp, #56	; 0x38
     bde:	bd10      	pop	{r4, pc}
     be0:	20000124 	.word	0x20000124
     be4:	42001800 	.word	0x42001800

00000be8 <system_tc_callbacks>:
{
     be8:	b510      	push	{r4, lr}
	tc_register_callback (&system_timer_instance, sys_tc_callback,
     bea:	4c0c      	ldr	r4, [pc, #48]	; (c1c <system_tc_callbacks+0x34>)
     bec:	2200      	movs	r2, #0
     bee:	490c      	ldr	r1, [pc, #48]	; (c20 <system_tc_callbacks+0x38>)
     bf0:	0020      	movs	r0, r4
     bf2:	f000 ffc8 	bl	1b86 <tc_register_callback>
	/* Sanity check arguments */
	Assert(module);


	/* Enable interrupts for this TC module */
	system_interrupt_enable(_tc_interrupt_get_interrupt_vector(_tc_get_inst_index(module->hw)));
     bf6:	6820      	ldr	r0, [r4, #0]
     bf8:	f001 f810 	bl	1c1c <_tc_get_inst_index>
	return (enum system_interrupt_vector)tc_interrupt_vectors[inst_num];
     bfc:	4b09      	ldr	r3, [pc, #36]	; (c24 <system_tc_callbacks+0x3c>)
     bfe:	5c1a      	ldrb	r2, [r3, r0]
     c00:	231f      	movs	r3, #31
     c02:	401a      	ands	r2, r3
     c04:	3b1e      	subs	r3, #30
     c06:	0019      	movs	r1, r3
     c08:	4091      	lsls	r1, r2
     c0a:	4a07      	ldr	r2, [pc, #28]	; (c28 <system_tc_callbacks+0x40>)
     c0c:	6011      	str	r1, [r2, #0]
	else if (callback_type == TC_CALLBACK_CC_CHANNEL1) {
		module->enable_callback_mask |= TC_INTFLAG_MC(2);
		module->hw->COUNT8.INTENSET.reg = TC_INTFLAG_MC(2);
	}
	else {
		module->enable_callback_mask |= (1 << callback_type);
     c0e:	7e62      	ldrb	r2, [r4, #25]
     c10:	431a      	orrs	r2, r3
     c12:	7662      	strb	r2, [r4, #25]
		module->hw->COUNT8.INTENSET.reg = (1 << callback_type);
     c14:	6822      	ldr	r2, [r4, #0]
     c16:	7353      	strb	r3, [r2, #13]
}
     c18:	bd10      	pop	{r4, pc}
     c1a:	46c0      	nop			; (mov r8, r8)
     c1c:	20000124 	.word	0x20000124
     c20:	00000a7d 	.word	0x00000a7d
     c24:	000024fc 	.word	0x000024fc
     c28:	e000e100 	.word	0xe000e100

00000c2c <startup_default_pin_state>:
		port_base->OUTCLR.reg = pin_mask;
     c2c:	2240      	movs	r2, #64	; 0x40
     c2e:	4b07      	ldr	r3, [pc, #28]	; (c4c <startup_default_pin_state+0x20>)
     c30:	615a      	str	r2, [r3, #20]
     c32:	1892      	adds	r2, r2, r2
     c34:	615a      	str	r2, [r3, #20]
     c36:	2280      	movs	r2, #128	; 0x80
     c38:	0212      	lsls	r2, r2, #8
     c3a:	615a      	str	r2, [r3, #20]
     c3c:	2280      	movs	r2, #128	; 0x80
     c3e:	0112      	lsls	r2, r2, #4
     c40:	615a      	str	r2, [r3, #20]
		port_base->OUTSET.reg = pin_mask;
     c42:	2208      	movs	r2, #8
     c44:	619a      	str	r2, [r3, #24]
		port_base->OUTCLR.reg = pin_mask;
     c46:	3a04      	subs	r2, #4
     c48:	615a      	str	r2, [r3, #20]
	 port_pin_set_output_level(SWITCH_OFF_PIN,LOW);
	 port_pin_set_output_level(BUTTON_2,LOW);
	 port_pin_set_output_level(CHARGING_PIN,LOW);
	 port_pin_set_output_level(CHARGN_OFF_PIN,HIGH);
	 port_pin_set_output_level(SAMPLE_ADC_PIN,LOW);
 }
     c4a:	4770      	bx	lr
     c4c:	41004400 	.word	0x41004400

00000c50 <startup_sys_configs>:


/************************************************************************/
/* SYSTEM startup function call (config functions)						*/
/************************************************************************/
void startup_sys_configs(void){
     c50:	b510      	push	{r4, lr}
	system_init();									// System Initialize
     c52:	f000 ff3a 	bl	1aca <system_init>
	cpu_irq_enable();
     c56:	2201      	movs	r2, #1
     c58:	4b09      	ldr	r3, [pc, #36]	; (c80 <startup_sys_configs+0x30>)
     c5a:	701a      	strb	r2, [r3, #0]
  \details Ensures the apparent order of the explicit memory operations before
           and after the instruction, without ensuring their completion.
 */
__STATIC_FORCEINLINE void __DMB(void)
{
  __ASM volatile ("dmb 0xF":::"memory");
     c5c:	f3bf 8f5f 	dmb	sy
  __ASM volatile ("cpsie i" : : : "memory");
     c60:	b662      	cpsie	i
	system_interrupt_enable_global();				// System Interrupts
	configure_port_pins();							// System PORTs
     c62:	f7ff ff51 	bl	b08 <configure_port_pins>
	startup_default_pin_state();
     c66:	f7ff ffe1 	bl	c2c <startup_default_pin_state>
	i2c_master_setup();								// Startup I2C
     c6a:	f001 fb03 	bl	2274 <i2c_master_setup>


	configure_system_tc();							// System Clock
     c6e:	f7ff ff87 	bl	b80 <configure_system_tc>
	system_tc_callbacks();							// System Clock Callback
     c72:	f7ff ffb9 	bl	be8 <system_tc_callbacks>
	//configure_pwm_tcc();							// Startup PWM
	configure_adc();
     c76:	f7ff fa47 	bl	108 <configure_adc>
	configure_pwm_generator();
     c7a:	f7ff fd7f 	bl	77c <configure_pwm_generator>
     c7e:	bd10      	pop	{r4, pc}
     c80:	20000010 	.word	0x20000010

00000c84 <update_battery_states>:
	return (port_base->IN.reg & pin_mask);
     c84:	2101      	movs	r1, #1
     c86:	4b06      	ldr	r3, [pc, #24]	; (ca0 <update_battery_states+0x1c>)
#define CHARGED_STATE port_pin_get_input_level(CHARGING_PIN)
//#define CHARGN_OFF_STATE port_pin_get_input_level(CHARGN_OFF_PIN)


void update_battery_states(void) {
  Vbus_State = VBUS_STATE;
     c88:	4806      	ldr	r0, [pc, #24]	; (ca4 <update_battery_states+0x20>)
     c8a:	6a1a      	ldr	r2, [r3, #32]
     c8c:	0ed2      	lsrs	r2, r2, #27
     c8e:	400a      	ands	r2, r1
     c90:	7002      	strb	r2, [r0, #0]
     c92:	6a1b      	ldr	r3, [r3, #32]
  Charged_State = CHARGED_STATE;
     c94:	4a04      	ldr	r2, [pc, #16]	; (ca8 <update_battery_states+0x24>)
     c96:	0adb      	lsrs	r3, r3, #11
     c98:	400b      	ands	r3, r1
     c9a:	7013      	strb	r3, [r2, #0]
}
     c9c:	4770      	bx	lr
     c9e:	46c0      	nop			; (mov r8, r8)
     ca0:	41004400 	.word	0x41004400
     ca4:	20000201 	.word	0x20000201
     ca8:	20000203 	.word	0x20000203

00000cac <display_battery_state>:

/************************************************************************/
/* Indication LED Control                                               */
/************************************************************************/

void display_battery_state(void) {
     cac:	b510      	push	{r4, lr}
  2. Steady red light when device has a low battery
  3. Blinking green light when device is charging
  4. Steady green light when the device is at least 100% charged.
  */

  if (Vbus_State) {
     cae:	4b10      	ldr	r3, [pc, #64]	; (cf0 <display_battery_state+0x44>)
     cb0:	781b      	ldrb	r3, [r3, #0]
     cb2:	2b00      	cmp	r3, #0
     cb4:	d109      	bne.n	cca <display_battery_state+0x1e>
		 // set_battery_charge_routine();				//  blink
		  } else {
		  //set_color_green_indication();
		  }
	  } else {
	  if (!motor_running){
     cb6:	4b0f      	ldr	r3, [pc, #60]	; (cf4 <display_battery_state+0x48>)
     cb8:	781b      	ldrb	r3, [r3, #0]
     cba:	2b00      	cmp	r3, #0
     cbc:	d105      	bne.n	cca <display_battery_state+0x1e>
			  if (BATTERY_LOWEST) {
     cbe:	4b0e      	ldr	r3, [pc, #56]	; (cf8 <display_battery_state+0x4c>)
     cc0:	781b      	ldrb	r3, [r3, #0]
     cc2:	2b00      	cmp	r3, #0
     cc4:	d002      	beq.n	ccc <display_battery_state+0x20>
				  set_battery_low_routine();				//  blink
     cc6:	f001 f9bd 	bl	2044 <set_battery_low_routine>
				  set_color_yellow_indication();			// ideal situation
				  }	
	  }else{
	  }
  }
}
     cca:	bd10      	pop	{r4, pc}
				  } else if (BATTERY_LOW) {
     ccc:	4b0b      	ldr	r3, [pc, #44]	; (cfc <display_battery_state+0x50>)
     cce:	781b      	ldrb	r3, [r3, #0]
     cd0:	2b00      	cmp	r3, #0
     cd2:	d002      	beq.n	cda <display_battery_state+0x2e>
				  set_color_red_indication();
     cd4:	f001 f962 	bl	1f9c <set_color_red_indication>
     cd8:	e7f7      	b.n	cca <display_battery_state+0x1e>
				  } else if (BATTERY_CHARGED) {
     cda:	4b09      	ldr	r3, [pc, #36]	; (d00 <display_battery_state+0x54>)
     cdc:	781b      	ldrb	r3, [r3, #0]
     cde:	2b00      	cmp	r3, #0
     ce0:	d002      	beq.n	ce8 <display_battery_state+0x3c>
				  set_color_green_indication();
     ce2:	f001 f941 	bl	1f68 <set_color_green_indication>
     ce6:	e7f0      	b.n	cca <display_battery_state+0x1e>
				  set_color_yellow_indication();			// ideal situation
     ce8:	f001 f990 	bl	200c <set_color_yellow_indication>
}
     cec:	e7ed      	b.n	cca <display_battery_state+0x1e>
     cee:	46c0      	nop			; (mov r8, r8)
     cf0:	20000201 	.word	0x20000201
     cf4:	20000044 	.word	0x20000044
     cf8:	2000004a 	.word	0x2000004a
     cfc:	20000049 	.word	0x20000049
     d00:	20000047 	.word	0x20000047

00000d04 <system_state>:

/************************************************************************/
/* STATE MACHINE		                                                */
/************************************************************************/

void system_state(void) {
     d04:	b510      	push	{r4, lr}
  update_battery_states();
     d06:	f7ff ffbd 	bl	c84 <update_battery_states>
  display_battery_state();
     d0a:	f7ff ffcf 	bl	cac <display_battery_state>
     d0e:	bd10      	pop	{r4, pc}

00000d10 <cpu_irq_enter_critical>:
volatile bool g_interrupt_enabled = true;
#endif

void cpu_irq_enter_critical(void)
{
	if (cpu_irq_critical_section_counter == 0) {
     d10:	4b09      	ldr	r3, [pc, #36]	; (d38 <cpu_irq_enter_critical+0x28>)
     d12:	6819      	ldr	r1, [r3, #0]
     d14:	2900      	cmp	r1, #0
     d16:	d10b      	bne.n	d30 <cpu_irq_enter_critical+0x20>
  __ASM volatile ("MRS %0, primask" : "=r" (result) :: "memory");
     d18:	f3ef 8010 	mrs	r0, PRIMASK
     d1c:	4a07      	ldr	r2, [pc, #28]	; (d3c <cpu_irq_enter_critical+0x2c>)
		if (cpu_irq_is_enabled()) {
     d1e:	2800      	cmp	r0, #0
     d20:	d105      	bne.n	d2e <cpu_irq_enter_critical+0x1e>
  __ASM volatile ("cpsid i" : : : "memory");
     d22:	b672      	cpsid	i
  __ASM volatile ("dmb 0xF":::"memory");
     d24:	f3bf 8f5f 	dmb	sy
			cpu_irq_disable();
     d28:	4905      	ldr	r1, [pc, #20]	; (d40 <cpu_irq_enter_critical+0x30>)
     d2a:	7008      	strb	r0, [r1, #0]
			cpu_irq_prev_interrupt_state = true;
     d2c:	2101      	movs	r1, #1
		} else {
			/* Make sure the to save the prev state as false */
			cpu_irq_prev_interrupt_state = false;
     d2e:	7011      	strb	r1, [r2, #0]
		}

	}

	cpu_irq_critical_section_counter++;
     d30:	681a      	ldr	r2, [r3, #0]
     d32:	3201      	adds	r2, #1
     d34:	601a      	str	r2, [r3, #0]
}
     d36:	4770      	bx	lr
     d38:	20000068 	.word	0x20000068
     d3c:	2000006c 	.word	0x2000006c
     d40:	20000010 	.word	0x20000010

00000d44 <cpu_irq_leave_critical>:
void cpu_irq_leave_critical(void)
{
	/* Check if the user is trying to leave a critical section when not in a critical section */
	Assert(cpu_irq_critical_section_counter > 0);

	cpu_irq_critical_section_counter--;
     d44:	4b08      	ldr	r3, [pc, #32]	; (d68 <cpu_irq_leave_critical+0x24>)
     d46:	681a      	ldr	r2, [r3, #0]
     d48:	3a01      	subs	r2, #1
     d4a:	601a      	str	r2, [r3, #0]

	/* Only enable global interrupts when the counter reaches 0 and the state of the global interrupt flag
	   was enabled when entering critical state */
	if ((cpu_irq_critical_section_counter == 0) && (cpu_irq_prev_interrupt_state)) {
     d4c:	681b      	ldr	r3, [r3, #0]
     d4e:	2b00      	cmp	r3, #0
     d50:	d109      	bne.n	d66 <cpu_irq_leave_critical+0x22>
     d52:	4b06      	ldr	r3, [pc, #24]	; (d6c <cpu_irq_leave_critical+0x28>)
     d54:	781b      	ldrb	r3, [r3, #0]
     d56:	2b00      	cmp	r3, #0
     d58:	d005      	beq.n	d66 <cpu_irq_leave_critical+0x22>
		cpu_irq_enable();
     d5a:	2201      	movs	r2, #1
     d5c:	4b04      	ldr	r3, [pc, #16]	; (d70 <cpu_irq_leave_critical+0x2c>)
     d5e:	701a      	strb	r2, [r3, #0]
     d60:	f3bf 8f5f 	dmb	sy
  __ASM volatile ("cpsie i" : : : "memory");
     d64:	b662      	cpsie	i
	}
}
     d66:	4770      	bx	lr
     d68:	20000068 	.word	0x20000068
     d6c:	2000006c 	.word	0x2000006c
     d70:	20000010 	.word	0x20000010

00000d74 <port_pin_set_config>:
 *  \param[in] config    Configuration settings for the pin
 */
void port_pin_set_config(
		const uint8_t gpio_pin,
		const struct port_config *const config)
{
     d74:	b507      	push	{r0, r1, r2, lr}
	config->mux_position = SYSTEM_PINMUX_GPIO;
     d76:	2280      	movs	r2, #128	; 0x80
     d78:	ab01      	add	r3, sp, #4
     d7a:	701a      	strb	r2, [r3, #0]

	struct system_pinmux_config pinmux_config;
	system_pinmux_get_config_defaults(&pinmux_config);

	pinmux_config.mux_position = SYSTEM_PINMUX_GPIO;
	pinmux_config.direction    = (enum system_pinmux_pin_dir)config->direction;
     d7c:	780a      	ldrb	r2, [r1, #0]
     d7e:	705a      	strb	r2, [r3, #1]
	pinmux_config.input_pull   = (enum system_pinmux_pin_pull)config->input_pull;
     d80:	784a      	ldrb	r2, [r1, #1]
     d82:	709a      	strb	r2, [r3, #2]
	pinmux_config.powersave    = config->powersave;
     d84:	788a      	ldrb	r2, [r1, #2]

	system_pinmux_pin_set_config(gpio_pin, &pinmux_config);
     d86:	0019      	movs	r1, r3
	pinmux_config.powersave    = config->powersave;
     d88:	70da      	strb	r2, [r3, #3]
	system_pinmux_pin_set_config(gpio_pin, &pinmux_config);
     d8a:	f000 fe89 	bl	1aa0 <system_pinmux_pin_set_config>
}
     d8e:	bd07      	pop	{r0, r1, r2, pc}

00000d90 <_i2c_master_wait_for_sync>:
	SercomI2cm *const i2c_hw = &(module->hw->I2CM);

#if defined(FEATURE_SERCOM_SYNCBUSY_SCHEME_VERSION_1)
	return (i2c_hw->STATUS.reg & SERCOM_I2CM_STATUS_SYNCBUSY);
#elif defined(FEATURE_SERCOM_SYNCBUSY_SCHEME_VERSION_2)
	return (i2c_hw->SYNCBUSY.reg & SERCOM_I2CM_SYNCBUSY_MASK);
     d90:	2307      	movs	r3, #7
	SercomI2cm *const i2c_hw = &(module->hw->I2CM);
     d92:	6801      	ldr	r1, [r0, #0]
	return (i2c_hw->SYNCBUSY.reg & SERCOM_I2CM_SYNCBUSY_MASK);
     d94:	69ca      	ldr	r2, [r1, #28]
		const struct i2c_master_module *const module)
{
	/* Sanity check */
	Assert(module);

	while (i2c_master_is_syncing(module)) {
     d96:	421a      	tst	r2, r3
     d98:	d1fc      	bne.n	d94 <_i2c_master_wait_for_sync+0x4>
		/* Wait for I2C module to sync. */
	}
}
     d9a:	4770      	bx	lr

00000d9c <i2c_master_init>:
 */
enum status_code i2c_master_init(
		struct i2c_master_module *const module,
		Sercom *const hw,
		const struct i2c_master_config *const config)
{
     d9c:	b5f0      	push	{r4, r5, r6, r7, lr}
     d9e:	0005      	movs	r5, r0
     da0:	b085      	sub	sp, #20
	Assert(module);
	Assert(hw);
	Assert(config);

	/* Initialize software module */
	module->hw = hw;
     da2:	6029      	str	r1, [r5, #0]

	SercomI2cm *const i2c_module = &(module->hw->I2CM);

	uint32_t sercom_index = _sercom_get_sercom_inst_index(module->hw);
     da4:	0008      	movs	r0, r1
{
     da6:	0014      	movs	r4, r2
     da8:	000e      	movs	r6, r1
	uint32_t sercom_index = _sercom_get_sercom_inst_index(module->hw);
     daa:	f000 faf7 	bl	139c <_sercom_get_sercom_inst_index>
		system_apb_clock_set_mask(SYSTEM_CLOCK_APB_APBD, 1 << pm_index);
	} else {
		system_apb_clock_set_mask(SYSTEM_CLOCK_APB_APBC, 1 << pm_index);
	}
#else
	system_apb_clock_set_mask(SYSTEM_CLOCK_APB_APBC, 1 << pm_index);
     dae:	2701      	movs	r7, #1
	pm_index     = sercom_index + PM_APBCMASK_SERCOM0_Pos;
     db0:	1c83      	adds	r3, r0, #2
	system_apb_clock_set_mask(SYSTEM_CLOCK_APB_APBC, 1 << pm_index);
     db2:	409f      	lsls	r7, r3
     db4:	003b      	movs	r3, r7
			PM->APBCMASK.reg |= mask;
     db6:	4a5c      	ldr	r2, [pc, #368]	; (f28 <i2c_master_init+0x18c>)
	gclk_index   = sercom_index + SERCOM0_GCLK_ID_CORE;
     db8:	300e      	adds	r0, #14
     dba:	6a11      	ldr	r1, [r2, #32]

	/* Set up the GCLK for the module */
	struct system_gclk_chan_config gclk_chan_conf;
	system_gclk_chan_get_config_defaults(&gclk_chan_conf);
	gclk_chan_conf.source_generator = config->generator_source;
	system_gclk_chan_set_config(gclk_index, &gclk_chan_conf);
     dbc:	b2c7      	uxtb	r7, r0
     dbe:	430b      	orrs	r3, r1
     dc0:	6213      	str	r3, [r2, #32]
	gclk_chan_conf.source_generator = config->generator_source;
     dc2:	7b23      	ldrb	r3, [r4, #12]
     dc4:	aa02      	add	r2, sp, #8
	system_gclk_chan_set_config(gclk_index, &gclk_chan_conf);
     dc6:	0011      	movs	r1, r2
     dc8:	0038      	movs	r0, r7
	gclk_chan_conf.source_generator = config->generator_source;
     dca:	7013      	strb	r3, [r2, #0]
	system_gclk_chan_set_config(gclk_index, &gclk_chan_conf);
     dcc:	f000 fe06 	bl	19dc <system_gclk_chan_set_config>
	system_gclk_chan_enable(gclk_index);
     dd0:	0038      	movs	r0, r7
     dd2:	f000 fdc7 	bl	1964 <system_gclk_chan_enable>
	sercom_set_gclk_generator(config->generator_source, false);
     dd6:	7b20      	ldrb	r0, [r4, #12]
     dd8:	2100      	movs	r1, #0
     dda:	f000 fa67 	bl	12ac <sercom_set_gclk_generator>

	/* Check if module is enabled. */
	if (i2c_module->CTRLA.reg & SERCOM_I2CM_CTRLA_ENABLE) {
     dde:	6833      	ldr	r3, [r6, #0]
		return STATUS_ERR_DENIED;
     de0:	201c      	movs	r0, #28
	if (i2c_module->CTRLA.reg & SERCOM_I2CM_CTRLA_ENABLE) {
     de2:	079b      	lsls	r3, r3, #30
     de4:	d500      	bpl.n	de8 <i2c_master_init+0x4c>
     de6:	e09d      	b.n	f24 <i2c_master_init+0x188>
	}

	/* Check if reset is in progress. */
	if (i2c_module->CTRLA.reg & SERCOM_I2CM_CTRLA_SWRST) {
     de8:	2201      	movs	r2, #1
     dea:	6833      	ldr	r3, [r6, #0]
		return STATUS_BUSY;
     dec:	3817      	subs	r0, #23
	if (i2c_module->CTRLA.reg & SERCOM_I2CM_CTRLA_SWRST) {
     dee:	401a      	ands	r2, r3
     df0:	9200      	str	r2, [sp, #0]
     df2:	d000      	beq.n	df6 <i2c_master_init+0x5a>
     df4:	e096      	b.n	f24 <i2c_master_init+0x188>
	}

#if I2C_MASTER_CALLBACK_MODE == true
	/* Get sercom instance index and register callback. */
	uint8_t instance_index = _sercom_get_sercom_inst_index(module->hw);
     df6:	6828      	ldr	r0, [r5, #0]
     df8:	f000 fad0 	bl	139c <_sercom_get_sercom_inst_index>
     dfc:	0007      	movs	r7, r0
	_sercom_set_handler(instance_index, _i2c_master_interrupt_handler);
     dfe:	494b      	ldr	r1, [pc, #300]	; (f2c <i2c_master_init+0x190>)
     e00:	f000 faea 	bl	13d8 <_sercom_set_handler>
	_sercom_instances[instance_index] = module;
     e04:	4b4a      	ldr	r3, [pc, #296]	; (f30 <i2c_master_init+0x194>)
     e06:	00bf      	lsls	r7, r7, #2
     e08:	50fd      	str	r5, [r7, r3]

	/* Initialize values in module. */
	module->registered_callback = 0;
     e0a:	466b      	mov	r3, sp
     e0c:	781b      	ldrb	r3, [r3, #0]
	module->enabled_callback = 0;
	module->buffer_length = 0;
	module->buffer_remaining = 0;

	module->status = STATUS_OK;
     e0e:	466a      	mov	r2, sp
	module->registered_callback = 0;
     e10:	762b      	strb	r3, [r5, #24]
	module->enabled_callback = 0;
     e12:	466b      	mov	r3, sp
     e14:	781b      	ldrb	r3, [r3, #0]
	module->status = STATUS_OK;
     e16:	7812      	ldrb	r2, [r2, #0]
	module->enabled_callback = 0;
     e18:	766b      	strb	r3, [r5, #25]
	module->buffer_length = 0;
     e1a:	466b      	mov	r3, sp
     e1c:	881b      	ldrh	r3, [r3, #0]
     e1e:	836b      	strh	r3, [r5, #26]
	module->buffer_remaining = 0;
     e20:	466b      	mov	r3, sp
     e22:	881b      	ldrh	r3, [r3, #0]
     e24:	83ab      	strh	r3, [r5, #28]
	module->status = STATUS_OK;
     e26:	1dab      	adds	r3, r5, #6
     e28:	77da      	strb	r2, [r3, #31]
	module->buffer = NULL;
     e2a:	9b00      	ldr	r3, [sp, #0]
     e2c:	622b      	str	r3, [r5, #32]
#endif

	/* Set sercom module to operate in I2C master mode. */
	i2c_module->CTRLA.reg = SERCOM_I2CM_CTRLA_MODE(0x5);
     e2e:	2314      	movs	r3, #20
     e30:	6033      	str	r3, [r6, #0]
	SercomI2cm *const i2c_module = &(module->hw->I2CM);
     e32:	682f      	ldr	r7, [r5, #0]
     e34:	ae03      	add	r6, sp, #12
	uint8_t sercom_index = _sercom_get_sercom_inst_index(sercom_hw);
     e36:	0038      	movs	r0, r7
     e38:	f000 fab0 	bl	139c <_sercom_get_sercom_inst_index>
     e3c:	2380      	movs	r3, #128	; 0x80
     e3e:	7033      	strb	r3, [r6, #0]
	config->direction    = SYSTEM_PINMUX_PIN_DIR_INPUT;
     e40:	466b      	mov	r3, sp
     e42:	781b      	ldrb	r3, [r3, #0]
     e44:	9001      	str	r0, [sp, #4]
     e46:	7073      	strb	r3, [r6, #1]
	config->input_pull   = SYSTEM_PINMUX_PIN_PULL_UP;
     e48:	2301      	movs	r3, #1
     e4a:	70b3      	strb	r3, [r6, #2]
	config->powersave    = false;
     e4c:	466b      	mov	r3, sp
     e4e:	781b      	ldrb	r3, [r3, #0]
	uint32_t pad0 = config->pinmux_pad0;
     e50:	69e0      	ldr	r0, [r4, #28]
     e52:	70f3      	strb	r3, [r6, #3]
	uint32_t pad1 = config->pinmux_pad1;
     e54:	6a23      	ldr	r3, [r4, #32]
     e56:	9300      	str	r3, [sp, #0]
	if (pad0 == PINMUX_DEFAULT) {
     e58:	2800      	cmp	r0, #0
     e5a:	d103      	bne.n	e64 <i2c_master_init+0xc8>
		pad0 = _sercom_get_default_pad(sercom_hw, 0);
     e5c:	0001      	movs	r1, r0
     e5e:	0038      	movs	r0, r7
     e60:	f000 fa42 	bl	12e8 <_sercom_get_default_pad>
	pin_conf.direction    = SYSTEM_PINMUX_PIN_DIR_OUTPUT_WITH_READBACK;
     e64:	2302      	movs	r3, #2
	pin_conf.mux_position = pad0 & 0xFFFF;
     e66:	7030      	strb	r0, [r6, #0]
	system_pinmux_pin_set_config(pad0 >> 16, &pin_conf);
     e68:	0c00      	lsrs	r0, r0, #16
     e6a:	b2c0      	uxtb	r0, r0
     e6c:	0031      	movs	r1, r6
	pin_conf.direction    = SYSTEM_PINMUX_PIN_DIR_OUTPUT_WITH_READBACK;
     e6e:	7073      	strb	r3, [r6, #1]
	system_pinmux_pin_set_config(pad0 >> 16, &pin_conf);
     e70:	f000 fe16 	bl	1aa0 <system_pinmux_pin_set_config>
	if (pad1 == PINMUX_DEFAULT) {
     e74:	9b00      	ldr	r3, [sp, #0]
     e76:	2b00      	cmp	r3, #0
     e78:	d104      	bne.n	e84 <i2c_master_init+0xe8>
		pad1 = _sercom_get_default_pad(sercom_hw, 1);
     e7a:	2101      	movs	r1, #1
     e7c:	0038      	movs	r0, r7
     e7e:	f000 fa33 	bl	12e8 <_sercom_get_default_pad>
     e82:	9000      	str	r0, [sp, #0]
	pin_conf.mux_position = pad1 & 0xFFFF;
     e84:	466b      	mov	r3, sp
     e86:	781b      	ldrb	r3, [r3, #0]
	system_pinmux_pin_set_config(pad1 >> 16, &pin_conf);
     e88:	0031      	movs	r1, r6
	pin_conf.mux_position = pad1 & 0xFFFF;
     e8a:	7033      	strb	r3, [r6, #0]
	pin_conf.direction    = SYSTEM_PINMUX_PIN_DIR_OUTPUT_WITH_READBACK;
     e8c:	2302      	movs	r3, #2
     e8e:	7073      	strb	r3, [r6, #1]
	system_pinmux_pin_set_config(pad1 >> 16, &pin_conf);
     e90:	9b00      	ldr	r3, [sp, #0]
     e92:	0c18      	lsrs	r0, r3, #16
     e94:	b2c0      	uxtb	r0, r0
     e96:	f000 fe03 	bl	1aa0 <system_pinmux_pin_set_config>
	module->unknown_bus_state_timeout = config->unknown_bus_state_timeout;
     e9a:	8aa3      	ldrh	r3, [r4, #20]
     e9c:	80eb      	strh	r3, [r5, #6]
	module->buffer_timeout = config->buffer_timeout;
     e9e:	8ae3      	ldrh	r3, [r4, #22]
     ea0:	812b      	strh	r3, [r5, #8]
	if (config->run_in_standby || system_is_debugger_present()) {
     ea2:	7e22      	ldrb	r2, [r4, #24]
		tmp_ctrla = SERCOM_I2CM_CTRLA_RUNSTDBY;
     ea4:	2380      	movs	r3, #128	; 0x80
	if (config->run_in_standby || system_is_debugger_present()) {
     ea6:	2a00      	cmp	r2, #0
     ea8:	d106      	bne.n	eb8 <i2c_master_init+0x11c>
 * \retval false Debugger is not connected to the system
 *
 */
static inline bool system_is_debugger_present(void)
{
	return DSU->STATUSB.reg & DSU_STATUSB_DBGPRES;
     eaa:	4b22      	ldr	r3, [pc, #136]	; (f34 <i2c_master_init+0x198>)
     eac:	3202      	adds	r2, #2
     eae:	789b      	ldrb	r3, [r3, #2]
     eb0:	4013      	ands	r3, r2
		tmp_ctrla = 0;
     eb2:	1e5a      	subs	r2, r3, #1
     eb4:	4193      	sbcs	r3, r2
     eb6:	01db      	lsls	r3, r3, #7
	tmp_ctrla |= config->transfer_speed;
     eb8:	68a1      	ldr	r1, [r4, #8]
     eba:	6922      	ldr	r2, [r4, #16]
     ebc:	430a      	orrs	r2, r1
     ebe:	4313      	orrs	r3, r2
	if (config->scl_low_timeout) {
     ec0:	1d62      	adds	r2, r4, #5
     ec2:	7fd2      	ldrb	r2, [r2, #31]
     ec4:	2a00      	cmp	r2, #0
     ec6:	d002      	beq.n	ece <i2c_master_init+0x132>
		tmp_ctrla |= SERCOM_I2CM_CTRLA_LOWTOUTEN;
     ec8:	2280      	movs	r2, #128	; 0x80
     eca:	05d2      	lsls	r2, r2, #23
     ecc:	4313      	orrs	r3, r2
		tmp_ctrla |= config->inactive_timeout;
     ece:	6aa2      	ldr	r2, [r4, #40]	; 0x28
     ed0:	4313      	orrs	r3, r2
	if (config->scl_stretch_only_after_ack_bit || (config->transfer_speed == I2C_MASTER_SPEED_HIGH_SPEED)) {
     ed2:	0022      	movs	r2, r4
     ed4:	322c      	adds	r2, #44	; 0x2c
     ed6:	7812      	ldrb	r2, [r2, #0]
     ed8:	2a00      	cmp	r2, #0
     eda:	d103      	bne.n	ee4 <i2c_master_init+0x148>
     edc:	2280      	movs	r2, #128	; 0x80
     ede:	0492      	lsls	r2, r2, #18
     ee0:	4291      	cmp	r1, r2
     ee2:	d102      	bne.n	eea <i2c_master_init+0x14e>
		tmp_ctrla |= SERCOM_I2CM_CTRLA_SCLSM;
     ee4:	2280      	movs	r2, #128	; 0x80
     ee6:	0512      	lsls	r2, r2, #20
     ee8:	4313      	orrs	r3, r2
	if (config->slave_scl_low_extend_timeout) {
     eea:	0022      	movs	r2, r4
     eec:	322d      	adds	r2, #45	; 0x2d
     eee:	7812      	ldrb	r2, [r2, #0]
     ef0:	2a00      	cmp	r2, #0
     ef2:	d002      	beq.n	efa <i2c_master_init+0x15e>
		tmp_ctrla |= SERCOM_I2CM_CTRLA_SEXTTOEN;
     ef4:	2280      	movs	r2, #128	; 0x80
     ef6:	0412      	lsls	r2, r2, #16
     ef8:	4313      	orrs	r3, r2
	if (config->master_scl_low_extend_timeout) {
     efa:	342e      	adds	r4, #46	; 0x2e
     efc:	7822      	ldrb	r2, [r4, #0]
     efe:	2a00      	cmp	r2, #0
     f00:	d002      	beq.n	f08 <i2c_master_init+0x16c>
		tmp_ctrla |= SERCOM_I2CM_CTRLA_MEXTTOEN;
     f02:	2280      	movs	r2, #128	; 0x80
     f04:	03d2      	lsls	r2, r2, #15
     f06:	4313      	orrs	r3, r2
	i2c_module->CTRLA.reg |= tmp_ctrla;
     f08:	683a      	ldr	r2, [r7, #0]
	uint32_t fgclk       = system_gclk_chan_get_hz(SERCOM0_GCLK_ID_CORE + sercom_index);
     f0a:	9801      	ldr	r0, [sp, #4]
	i2c_module->CTRLA.reg |= tmp_ctrla;
     f0c:	4313      	orrs	r3, r2
     f0e:	603b      	str	r3, [r7, #0]
	i2c_module->CTRLB.reg = SERCOM_I2CM_CTRLB_SMEN;
     f10:	2380      	movs	r3, #128	; 0x80
	uint32_t fgclk       = system_gclk_chan_get_hz(SERCOM0_GCLK_ID_CORE + sercom_index);
     f12:	300e      	adds	r0, #14
	i2c_module->CTRLB.reg = SERCOM_I2CM_CTRLB_SMEN;
     f14:	005b      	lsls	r3, r3, #1
     f16:	607b      	str	r3, [r7, #4]
	uint32_t fgclk       = system_gclk_chan_get_hz(SERCOM0_GCLK_ID_CORE + sercom_index);
     f18:	b2c0      	uxtb	r0, r0
     f1a:	f000 fd6b 	bl	19f4 <system_gclk_chan_get_hz>
		i2c_module->BAUD.reg = SERCOM_I2CM_BAUD_BAUD(tmp_baud) |
     f1e:	2323      	movs	r3, #35	; 0x23

	/* Set config and return status. */
	return _i2c_master_set_config(module, config);
     f20:	2000      	movs	r0, #0
		i2c_module->BAUD.reg = SERCOM_I2CM_BAUD_BAUD(tmp_baud) |
     f22:	60fb      	str	r3, [r7, #12]
}
     f24:	b005      	add	sp, #20
     f26:	bdf0      	pop	{r4, r5, r6, r7, pc}
     f28:	40000400 	.word	0x40000400
     f2c:	0000112d 	.word	0x0000112d
     f30:	20000204 	.word	0x20000204
     f34:	41002000 	.word	0x41002000

00000f38 <_i2c_master_address_response>:

	SercomI2cm *const i2c_module = &(module->hw->I2CM);

	/* Check for error and ignore bus-error; workaround for BUSSTATE stuck in
	 * BUSY */
	if (i2c_module->INTFLAG.reg & SERCOM_I2CM_INTFLAG_SB) {
     f38:	2202      	movs	r2, #2
	SercomI2cm *const i2c_module = &(module->hw->I2CM);
     f3a:	6803      	ldr	r3, [r0, #0]
	if (i2c_module->INTFLAG.reg & SERCOM_I2CM_INTFLAG_SB) {
     f3c:	7e19      	ldrb	r1, [r3, #24]
     f3e:	4211      	tst	r1, r2
     f40:	d006      	beq.n	f50 <_i2c_master_address_response+0x18>

		/* Clear write interrupt flag */
		i2c_module->INTFLAG.reg = SERCOM_I2CM_INTFLAG_SB;
     f42:	761a      	strb	r2, [r3, #24]

		/* Check arbitration. */
		if (i2c_module->STATUS.reg & SERCOM_I2CM_STATUS_ARBLOST) {
     f44:	8b5b      	ldrh	r3, [r3, #26]
			/* Return packet collision. */
			return STATUS_ERR_PACKET_COLLISION;
     f46:	2041      	movs	r0, #65	; 0x41
		if (i2c_module->STATUS.reg & SERCOM_I2CM_STATUS_ARBLOST) {
     f48:	4213      	tst	r3, r2
     f4a:	d10a      	bne.n	f62 <_i2c_master_address_response+0x2a>

		/* Return bad address value. */
		return STATUS_ERR_BAD_ADDRESS;
	}

	return STATUS_OK;
     f4c:	2000      	movs	r0, #0
     f4e:	e008      	b.n	f62 <_i2c_master_address_response+0x2a>
	} else if (i2c_module->STATUS.reg & SERCOM_I2CM_STATUS_RXNACK) {
     f50:	8b5a      	ldrh	r2, [r3, #26]
     f52:	0752      	lsls	r2, r2, #29
     f54:	d5fa      	bpl.n	f4c <_i2c_master_address_response+0x14>
		i2c_module->CTRLB.reg |= SERCOM_I2CM_CTRLB_CMD(3);
     f56:	22c0      	movs	r2, #192	; 0xc0
		return STATUS_ERR_BAD_ADDRESS;
     f58:	2018      	movs	r0, #24
		i2c_module->CTRLB.reg |= SERCOM_I2CM_CTRLB_CMD(3);
     f5a:	6859      	ldr	r1, [r3, #4]
     f5c:	0292      	lsls	r2, r2, #10
     f5e:	430a      	orrs	r2, r1
     f60:	605a      	str	r2, [r3, #4]
}
     f62:	4770      	bx	lr

00000f64 <_i2c_master_wait_for_bus>:
 * \retval STATUS_ERR_TIMEOUT  If no response was given within specified timeout
 *                             period
 */
enum status_code _i2c_master_wait_for_bus(
		struct i2c_master_module *const module)
{
     f64:	b570      	push	{r4, r5, r6, lr}
	Assert(module->hw);

	SercomI2cm *const i2c_module = &(module->hw->I2CM);

	/* Wait for reply. */
	uint16_t timeout_counter = 0;
     f66:	2200      	movs	r2, #0
	while (!(i2c_module->INTFLAG.reg & SERCOM_I2CM_INTFLAG_MB) &&
     f68:	2601      	movs	r6, #1
     f6a:	2402      	movs	r4, #2
	SercomI2cm *const i2c_module = &(module->hw->I2CM);
     f6c:	6801      	ldr	r1, [r0, #0]
	while (!(i2c_module->INTFLAG.reg & SERCOM_I2CM_INTFLAG_MB) &&
     f6e:	7e0b      	ldrb	r3, [r1, #24]
     f70:	4033      	ands	r3, r6
     f72:	d102      	bne.n	f7a <_i2c_master_wait_for_bus+0x16>
			!(i2c_module->INTFLAG.reg & SERCOM_I2CM_INTFLAG_SB)) {
     f74:	7e0d      	ldrb	r5, [r1, #24]
	while (!(i2c_module->INTFLAG.reg & SERCOM_I2CM_INTFLAG_MB) &&
     f76:	4225      	tst	r5, r4
     f78:	d001      	beq.n	f7e <_i2c_master_wait_for_bus+0x1a>
		/* Check timeout condition. */
		if (++timeout_counter >= module->buffer_timeout) {
			return STATUS_ERR_TIMEOUT;
		}
	}
	return STATUS_OK;
     f7a:	2000      	movs	r0, #0
     f7c:	e005      	b.n	f8a <_i2c_master_wait_for_bus+0x26>
		if (++timeout_counter >= module->buffer_timeout) {
     f7e:	3201      	adds	r2, #1
     f80:	8903      	ldrh	r3, [r0, #8]
     f82:	b292      	uxth	r2, r2
     f84:	4293      	cmp	r3, r2
     f86:	d8f2      	bhi.n	f6e <_i2c_master_wait_for_bus+0xa>
			return STATUS_ERR_TIMEOUT;
     f88:	2012      	movs	r0, #18
}
     f8a:	bd70      	pop	{r4, r5, r6, pc}

00000f8c <_i2c_master_send_hs_master_code>:
	SercomI2cm *const i2c_module = &(module->hw->I2CM);
	/* Return value. */
	enum status_code tmp_status;

	/* Set NACK for high speed code */
	i2c_module->CTRLB.reg |= SERCOM_I2CM_CTRLB_ACKACT;
     f8c:	2380      	movs	r3, #128	; 0x80
{
     f8e:	b510      	push	{r4, lr}
	SercomI2cm *const i2c_module = &(module->hw->I2CM);
     f90:	6804      	ldr	r4, [r0, #0]
	i2c_module->CTRLB.reg |= SERCOM_I2CM_CTRLB_ACKACT;
     f92:	02db      	lsls	r3, r3, #11
     f94:	6862      	ldr	r2, [r4, #4]
     f96:	4313      	orrs	r3, r2
     f98:	6063      	str	r3, [r4, #4]
	/* Send high speed code */
	i2c_module->ADDR.reg = hs_master_code;
     f9a:	6261      	str	r1, [r4, #36]	; 0x24
	/* Wait for response on bus. */
	tmp_status = _i2c_master_wait_for_bus(module);
     f9c:	f7ff ffe2 	bl	f64 <_i2c_master_wait_for_bus>
	/* Clear write interrupt flag */
	i2c_module->INTFLAG.reg = SERCOM_I2CM_INTENCLR_MB;
     fa0:	2301      	movs	r3, #1
     fa2:	7623      	strb	r3, [r4, #24]

	return tmp_status;
}
     fa4:	bd10      	pop	{r4, pc}
	...

00000fa8 <_i2c_master_write_packet>:
 *                                      acknowledged the address
 */
static enum status_code _i2c_master_write_packet(
		struct i2c_master_module *const module,
		struct i2c_master_packet *const packet)
{
     fa8:	b5f7      	push	{r0, r1, r2, r4, r5, r6, r7, lr}
     faa:	000f      	movs	r7, r1
	SercomI2cm *const i2c_module = &(module->hw->I2CM);

	/* Return value. */
	enum status_code tmp_status;
	uint16_t tmp_data_length = packet->data_length;
     fac:	884b      	ldrh	r3, [r1, #2]
{
     fae:	0005      	movs	r5, r0
	uint16_t tmp_data_length = packet->data_length;
     fb0:	9301      	str	r3, [sp, #4]
	SercomI2cm *const i2c_module = &(module->hw->I2CM);
     fb2:	6804      	ldr	r4, [r0, #0]

	_i2c_master_wait_for_sync(module);
     fb4:	f7ff feec 	bl	d90 <_i2c_master_wait_for_sync>

	/* Switch to high speed mode */
	if (packet->high_speed) {
     fb8:	7a7b      	ldrb	r3, [r7, #9]
     fba:	2b00      	cmp	r3, #0
     fbc:	d003      	beq.n	fc6 <_i2c_master_write_packet+0x1e>
		_i2c_master_send_hs_master_code(module, packet->hs_master_code);
     fbe:	7ab9      	ldrb	r1, [r7, #10]
     fc0:	0028      	movs	r0, r5
     fc2:	f7ff ffe3 	bl	f8c <_i2c_master_send_hs_master_code>
	}

	/* Set action to ACK. */
	i2c_module->CTRLB.reg &= ~SERCOM_I2CM_CTRLB_ACKACT;
     fc6:	6863      	ldr	r3, [r4, #4]
     fc8:	4a24      	ldr	r2, [pc, #144]	; (105c <_i2c_master_write_packet+0xb4>)
     fca:	4013      	ands	r3, r2
     fcc:	6063      	str	r3, [r4, #4]
     fce:	7a7a      	ldrb	r2, [r7, #9]
     fd0:	883b      	ldrh	r3, [r7, #0]

	/* Set address and direction bit. Will send start command on bus. */
	if (packet->ten_bit_address) {
     fd2:	7a39      	ldrb	r1, [r7, #8]
		i2c_module->ADDR.reg = (packet->address << 1) | I2C_TRANSFER_WRITE |
     fd4:	005b      	lsls	r3, r3, #1
			(packet->high_speed << SERCOM_I2CM_ADDR_HS_Pos) |
     fd6:	0392      	lsls	r2, r2, #14
		i2c_module->ADDR.reg = (packet->address << 1) | I2C_TRANSFER_WRITE |
     fd8:	4313      	orrs	r3, r2
	if (packet->ten_bit_address) {
     fda:	2900      	cmp	r1, #0
     fdc:	d002      	beq.n	fe4 <_i2c_master_write_packet+0x3c>
			(packet->high_speed << SERCOM_I2CM_ADDR_HS_Pos) |
     fde:	2280      	movs	r2, #128	; 0x80
     fe0:	0212      	lsls	r2, r2, #8
     fe2:	4313      	orrs	r3, r2
			SERCOM_I2CM_ADDR_TENBITEN;
	} else {
		i2c_module->ADDR.reg = (packet->address << 1) | I2C_TRANSFER_WRITE |
     fe4:	6263      	str	r3, [r4, #36]	; 0x24
			(packet->high_speed << SERCOM_I2CM_ADDR_HS_Pos);
	}
	/* Wait for response on bus. */
	tmp_status = _i2c_master_wait_for_bus(module);
     fe6:	0028      	movs	r0, r5
     fe8:	f7ff ffbc 	bl	f64 <_i2c_master_wait_for_bus>
     fec:	1e06      	subs	r6, r0, #0

	/* Check for address response error unless previous error is
	 * detected. */
	if (tmp_status == STATUS_OK) {
     fee:	d115      	bne.n	101c <_i2c_master_write_packet+0x74>
		tmp_status = _i2c_master_address_response(module);
     ff0:	0028      	movs	r0, r5
     ff2:	f7ff ffa1 	bl	f38 <_i2c_master_address_response>
     ff6:	1e06      	subs	r6, r0, #0
	}

	/* Check that no error has occurred. */
	if (tmp_status == STATUS_OK) {
     ff8:	d110      	bne.n	101c <_i2c_master_write_packet+0x74>
     ffa:	9000      	str	r0, [sp, #0]
		/* Buffer counter. */
		uint16_t buffer_counter = 0;

		/* Write data buffer. */
		while (tmp_data_length--) {
     ffc:	9b00      	ldr	r3, [sp, #0]
     ffe:	9a01      	ldr	r2, [sp, #4]
    1000:	4293      	cmp	r3, r2
    1002:	d10d      	bne.n	1020 <_i2c_master_write_packet+0x78>
    1004:	2600      	movs	r6, #0
				tmp_status = STATUS_ERR_OVERFLOW;
				break;
			}
		}

		if (module->send_stop) {
    1006:	7aab      	ldrb	r3, [r5, #10]
    1008:	2b00      	cmp	r3, #0
    100a:	d007      	beq.n	101c <_i2c_master_write_packet+0x74>
			/* Stop command */
			_i2c_master_wait_for_sync(module);
    100c:	0028      	movs	r0, r5
    100e:	f7ff febf 	bl	d90 <_i2c_master_wait_for_sync>
			i2c_module->CTRLB.reg |= SERCOM_I2CM_CTRLB_CMD(3);
    1012:	23c0      	movs	r3, #192	; 0xc0
    1014:	6862      	ldr	r2, [r4, #4]
    1016:	029b      	lsls	r3, r3, #10
    1018:	4313      	orrs	r3, r2
    101a:	6063      	str	r3, [r4, #4]
		}
	}

	return tmp_status;
}
    101c:	0030      	movs	r0, r6
    101e:	bdfe      	pop	{r1, r2, r3, r4, r5, r6, r7, pc}
			if (!(i2c_module->STATUS.reg & SERCOM_I2CM_STATUS_BUSSTATE(2))) {
    1020:	2220      	movs	r2, #32
    1022:	8b63      	ldrh	r3, [r4, #26]
    1024:	4213      	tst	r3, r2
    1026:	d016      	beq.n	1056 <_i2c_master_write_packet+0xae>
			_i2c_master_wait_for_sync(module);
    1028:	0028      	movs	r0, r5
    102a:	f7ff feb1 	bl	d90 <_i2c_master_wait_for_sync>
			i2c_module->DATA.reg = packet->data[buffer_counter++];
    102e:	687b      	ldr	r3, [r7, #4]
    1030:	9a00      	ldr	r2, [sp, #0]
			tmp_status = _i2c_master_wait_for_bus(module);
    1032:	0028      	movs	r0, r5
			i2c_module->DATA.reg = packet->data[buffer_counter++];
    1034:	5c9a      	ldrb	r2, [r3, r2]
    1036:	0023      	movs	r3, r4
    1038:	3328      	adds	r3, #40	; 0x28
    103a:	701a      	strb	r2, [r3, #0]
			tmp_status = _i2c_master_wait_for_bus(module);
    103c:	f7ff ff92 	bl	f64 <_i2c_master_wait_for_bus>
    1040:	1e06      	subs	r6, r0, #0
			if (tmp_status != STATUS_OK) {
    1042:	d1e0      	bne.n	1006 <_i2c_master_write_packet+0x5e>
    1044:	9a00      	ldr	r2, [sp, #0]
			if (i2c_module->STATUS.reg & SERCOM_I2CM_STATUS_RXNACK) {
    1046:	8b63      	ldrh	r3, [r4, #26]
    1048:	3201      	adds	r2, #1
    104a:	9200      	str	r2, [sp, #0]
    104c:	2204      	movs	r2, #4
    104e:	4213      	tst	r3, r2
    1050:	d0d4      	beq.n	ffc <_i2c_master_write_packet+0x54>
				tmp_status = STATUS_ERR_OVERFLOW;
    1052:	261e      	movs	r6, #30
    1054:	e7d7      	b.n	1006 <_i2c_master_write_packet+0x5e>
				return STATUS_ERR_PACKET_COLLISION;
    1056:	2641      	movs	r6, #65	; 0x41
    1058:	e7e0      	b.n	101c <_i2c_master_write_packet+0x74>
    105a:	46c0      	nop			; (mov r8, r8)
    105c:	fffbffff 	.word	0xfffbffff

00001060 <i2c_master_write_packet_wait>:
 *                                      last data sent
 */
enum status_code i2c_master_write_packet_wait(
		struct i2c_master_module *const module,
		struct i2c_master_packet *const packet)
{
    1060:	b510      	push	{r4, lr}
	Assert(module->hw);
	Assert(packet);

#if I2C_MASTER_CALLBACK_MODE == true
	/* Check if the I2C module is busy with a job */
	if (module->buffer_remaining > 0) {
    1062:	8b82      	ldrh	r2, [r0, #28]
{
    1064:	0003      	movs	r3, r0
		return STATUS_BUSY;
    1066:	2005      	movs	r0, #5
	if (module->buffer_remaining > 0) {
    1068:	2a00      	cmp	r2, #0
    106a:	d105      	bne.n	1078 <i2c_master_write_packet_wait+0x18>
	}
#endif

	module->send_stop = true;
    106c:	3201      	adds	r2, #1
    106e:	729a      	strb	r2, [r3, #10]
	module->send_nack = true;
    1070:	72da      	strb	r2, [r3, #11]

	return _i2c_master_write_packet(module, packet);
    1072:	0018      	movs	r0, r3
    1074:	f7ff ff98 	bl	fa8 <_i2c_master_write_packet>
}
    1078:	bd10      	pop	{r4, pc}

0000107a <_i2c_master_wait_for_sync>:
	return (i2c_hw->SYNCBUSY.reg & SERCOM_I2CM_SYNCBUSY_MASK);
    107a:	2307      	movs	r3, #7
	SercomI2cm *const i2c_hw = &(module->hw->I2CM);
    107c:	6801      	ldr	r1, [r0, #0]
	return (i2c_hw->SYNCBUSY.reg & SERCOM_I2CM_SYNCBUSY_MASK);
    107e:	69ca      	ldr	r2, [r1, #28]
	while (i2c_master_is_syncing(module)) {
    1080:	421a      	tst	r2, r3
    1082:	d1fc      	bne.n	107e <_i2c_master_wait_for_sync+0x4>
}
    1084:	4770      	bx	lr

00001086 <_i2c_master_read>:
 *
 * \param[in,out] module  Pointer to software module structure
 */
static void _i2c_master_read(
		struct i2c_master_module *const module)
{
    1086:	b570      	push	{r4, r5, r6, lr}
	/* Sanity check arguments. */
	Assert(module);
	Assert(module->hw);

	SercomI2cm *const i2c_module = &(module->hw->I2CM);
    1088:	6805      	ldr	r5, [r0, #0]
{
    108a:	0004      	movs	r4, r0
	bool sclsm_flag = i2c_module->CTRLA.bit.SCLSM;
    108c:	682a      	ldr	r2, [r5, #0]

	/* Find index to save next value in buffer */
	uint16_t buffer_index = module->buffer_length;
    108e:	8b46      	ldrh	r6, [r0, #26]
	buffer_index -= module->buffer_remaining;
    1090:	8b83      	ldrh	r3, [r0, #28]
    1092:	1af6      	subs	r6, r6, r3

	module->buffer_remaining--;
    1094:	8b83      	ldrh	r3, [r0, #28]
	buffer_index -= module->buffer_remaining;
    1096:	b2b6      	uxth	r6, r6
	module->buffer_remaining--;
    1098:	3b01      	subs	r3, #1
    109a:	b29b      	uxth	r3, r3
    109c:	8383      	strh	r3, [r0, #28]
    109e:	7ac3      	ldrb	r3, [r0, #11]

	if (sclsm_flag) {
    10a0:	0112      	lsls	r2, r2, #4
    10a2:	d50a      	bpl.n	10ba <_i2c_master_read+0x34>
		if (module->send_nack && module->buffer_remaining == 1) {
    10a4:	2b00      	cmp	r3, #0
    10a6:	d00d      	beq.n	10c4 <_i2c_master_read+0x3e>
    10a8:	8b83      	ldrh	r3, [r0, #28]
    10aa:	2b01      	cmp	r3, #1
    10ac:	d10a      	bne.n	10c4 <_i2c_master_read+0x3e>
			i2c_module->CTRLB.reg |= SERCOM_I2CM_CTRLB_ACKACT;
		}
	} else {
		if (module->send_nack && module->buffer_remaining == 0) {
			/* Set action to NACK. */
			i2c_module->CTRLB.reg |= SERCOM_I2CM_CTRLB_ACKACT;
    10ae:	2380      	movs	r3, #128	; 0x80
    10b0:	686a      	ldr	r2, [r5, #4]
    10b2:	02db      	lsls	r3, r3, #11
    10b4:	4313      	orrs	r3, r2
    10b6:	606b      	str	r3, [r5, #4]
    10b8:	e004      	b.n	10c4 <_i2c_master_read+0x3e>
		if (module->send_nack && module->buffer_remaining == 0) {
    10ba:	2b00      	cmp	r3, #0
    10bc:	d002      	beq.n	10c4 <_i2c_master_read+0x3e>
    10be:	8b83      	ldrh	r3, [r0, #28]
    10c0:	2b00      	cmp	r3, #0
    10c2:	d0f4      	beq.n	10ae <_i2c_master_read+0x28>
		}
	}

	if (module->buffer_remaining == 0) {
    10c4:	8ba3      	ldrh	r3, [r4, #28]
    10c6:	2b00      	cmp	r3, #0
    10c8:	d10a      	bne.n	10e0 <_i2c_master_read+0x5a>
		if (module->send_stop) {
    10ca:	7aa3      	ldrb	r3, [r4, #10]
    10cc:	2b00      	cmp	r3, #0
    10ce:	d007      	beq.n	10e0 <_i2c_master_read+0x5a>
			/* Send stop condition */
			_i2c_master_wait_for_sync(module);
    10d0:	0020      	movs	r0, r4
    10d2:	f7ff ffd2 	bl	107a <_i2c_master_wait_for_sync>
			i2c_module->CTRLB.reg |= SERCOM_I2CM_CTRLB_CMD(3);
    10d6:	23c0      	movs	r3, #192	; 0xc0
    10d8:	686a      	ldr	r2, [r5, #4]
    10da:	029b      	lsls	r3, r3, #10
    10dc:	4313      	orrs	r3, r2
    10de:	606b      	str	r3, [r5, #4]
		}
	}
	
	/* Read byte from slave and put in buffer */
	_i2c_master_wait_for_sync(module);
    10e0:	0020      	movs	r0, r4
    10e2:	f7ff ffca 	bl	107a <_i2c_master_wait_for_sync>
	module->buffer[buffer_index] = i2c_module->DATA.reg;
    10e6:	6a23      	ldr	r3, [r4, #32]
    10e8:	3528      	adds	r5, #40	; 0x28
    10ea:	199e      	adds	r6, r3, r6
    10ec:	782b      	ldrb	r3, [r5, #0]
    10ee:	b2db      	uxtb	r3, r3
    10f0:	7033      	strb	r3, [r6, #0]
}
    10f2:	bd70      	pop	{r4, r5, r6, pc}

000010f4 <_i2c_master_write>:
 * Write next data. Used by interrupt handler to send next data byte to slave.
 *
 * \param[in,out] module  Pointer to software module structure
 */
static void _i2c_master_write(struct i2c_master_module *const module)
{
    10f4:	b570      	push	{r4, r5, r6, lr}
	/* Sanity check arguments. */
	Assert(module);
	Assert(module->hw);

	SercomI2cm *const i2c_module = &(module->hw->I2CM);
    10f6:	6806      	ldr	r6, [r0, #0]
{
    10f8:	0004      	movs	r4, r0

	/* Check for ack from slave */
	if (i2c_module->STATUS.reg & SERCOM_I2CM_STATUS_RXNACK)
    10fa:	8b73      	ldrh	r3, [r6, #26]
    10fc:	075b      	lsls	r3, r3, #29
    10fe:	d503      	bpl.n	1108 <_i2c_master_write+0x14>
	{
		/* Set status */
		module->status = STATUS_ERR_OVERFLOW;
    1100:	231e      	movs	r3, #30
    1102:	3406      	adds	r4, #6
    1104:	77e3      	strb	r3, [r4, #31]
	module->buffer_remaining--;

	/* Write byte from buffer to slave */
	_i2c_master_wait_for_sync(module);
	i2c_module->DATA.reg = module->buffer[buffer_index];
}
    1106:	bd70      	pop	{r4, r5, r6, pc}
	uint16_t buffer_index = module->buffer_length;
    1108:	8b45      	ldrh	r5, [r0, #26]
	buffer_index -= module->buffer_remaining;
    110a:	8b83      	ldrh	r3, [r0, #28]
	i2c_module->DATA.reg = module->buffer[buffer_index];
    110c:	3628      	adds	r6, #40	; 0x28
	buffer_index -= module->buffer_remaining;
    110e:	1aed      	subs	r5, r5, r3
	module->buffer_remaining--;
    1110:	8b83      	ldrh	r3, [r0, #28]
	buffer_index -= module->buffer_remaining;
    1112:	b2ad      	uxth	r5, r5
	module->buffer_remaining--;
    1114:	3b01      	subs	r3, #1
    1116:	b29b      	uxth	r3, r3
    1118:	8383      	strh	r3, [r0, #28]
	_i2c_master_wait_for_sync(module);
    111a:	f7ff ffae 	bl	107a <_i2c_master_wait_for_sync>
	i2c_module->DATA.reg = module->buffer[buffer_index];
    111e:	6a23      	ldr	r3, [r4, #32]
    1120:	195d      	adds	r5, r3, r5
    1122:	782b      	ldrb	r3, [r5, #0]
    1124:	b2db      	uxtb	r3, r3
    1126:	7033      	strb	r3, [r6, #0]
    1128:	e7ed      	b.n	1106 <_i2c_master_write+0x12>
	...

0000112c <_i2c_master_interrupt_handler>:
 *
 * \param[in] instance  SERCOM instance that triggered the interrupt
 */
void _i2c_master_interrupt_handler(
		uint8_t instance)
{
    112c:	b5f8      	push	{r3, r4, r5, r6, r7, lr}
	/* Get software module for callback handling */
	struct i2c_master_module *module =
    112e:	4b5e      	ldr	r3, [pc, #376]	; (12a8 <_i2c_master_interrupt_handler+0x17c>)
    1130:	0080      	lsls	r0, r0, #2
    1132:	58c4      	ldr	r4, [r0, r3]
			(struct i2c_master_module*)_sercom_instances[instance];

	Assert(module);

	SercomI2cm *const i2c_module = &(module->hw->I2CM);
    1134:	6825      	ldr	r5, [r4, #0]
    1136:	1da6      	adds	r6, r4, #6
	bool sclsm_flag = i2c_module->CTRLA.bit.SCLSM;
    1138:	682b      	ldr	r3, [r5, #0]

	/* Combine callback registered and enabled masks */
	uint8_t callback_mask = module->enabled_callback;
    113a:	7e62      	ldrb	r2, [r4, #25]
	callback_mask &= module->registered_callback;
    113c:	7e27      	ldrb	r7, [r4, #24]
	bool sclsm_flag = i2c_module->CTRLA.bit.SCLSM;
    113e:	011b      	lsls	r3, r3, #4
	callback_mask &= module->registered_callback;
    1140:	4017      	ands	r7, r2

	/* Check if the module should respond to address ack */
	if ((module->buffer_length <= 0) && (module->buffer_remaining > 0)) {
    1142:	8b62      	ldrh	r2, [r4, #26]
	bool sclsm_flag = i2c_module->CTRLA.bit.SCLSM;
    1144:	0fdb      	lsrs	r3, r3, #31
	if ((module->buffer_length <= 0) && (module->buffer_remaining > 0)) {
    1146:	2a00      	cmp	r2, #0
    1148:	d12e      	bne.n	11a8 <_i2c_master_interrupt_handler+0x7c>
    114a:	8ba2      	ldrh	r2, [r4, #28]
    114c:	2a00      	cmp	r2, #0
    114e:	d02b      	beq.n	11a8 <_i2c_master_interrupt_handler+0x7c>
	if (i2c_module->INTFLAG.reg & SERCOM_I2CM_INTFLAG_MB)
    1150:	2301      	movs	r3, #1
    1152:	7e2a      	ldrb	r2, [r5, #24]
    1154:	421a      	tst	r2, r3
    1156:	d006      	beq.n	1166 <_i2c_master_interrupt_handler+0x3a>
		if (i2c_module->STATUS.reg & SERCOM_I2CM_STATUS_ARBLOST) {
    1158:	2202      	movs	r2, #2
		i2c_module->INTFLAG.reg = SERCOM_I2CM_INTENCLR_MB;
    115a:	762b      	strb	r3, [r5, #24]
		if (i2c_module->STATUS.reg & SERCOM_I2CM_STATUS_ARBLOST) {
    115c:	8b6b      	ldrh	r3, [r5, #26]
    115e:	4013      	ands	r3, r2
    1160:	d010      	beq.n	1184 <_i2c_master_interrupt_handler+0x58>
			module->status = STATUS_ERR_PACKET_COLLISION;
    1162:	2341      	movs	r3, #65	; 0x41
    1164:	77f3      	strb	r3, [r6, #31]
	module->buffer_length = module->buffer_remaining;
    1166:	8ba3      	ldrh	r3, [r4, #28]
    1168:	b29b      	uxth	r3, r3
    116a:	8363      	strh	r3, [r4, #26]
	if (module->status == STATUS_BUSY) {
    116c:	7ff3      	ldrb	r3, [r6, #31]
    116e:	2b05      	cmp	r3, #5
    1170:	d13c      	bne.n	11ec <_i2c_master_interrupt_handler+0xc0>
	} else if ((module->buffer_length > 0) && (module->buffer_remaining > 0)){
		/* Check that bus ownership is not lost */
		if ((!(i2c_module->STATUS.reg & SERCOM_I2CM_STATUS_BUSSTATE(2))) &&
				(!(sclsm_flag && (module->buffer_remaining == 1))))	{
			module->status = STATUS_ERR_PACKET_COLLISION;
		} else if (module->transfer_direction == I2C_TRANSFER_WRITE) {
    1172:	1d63      	adds	r3, r4, #5
    1174:	7fdb      	ldrb	r3, [r3, #31]
			_i2c_master_write(module);
    1176:	0020      	movs	r0, r4
		} else if (module->transfer_direction == I2C_TRANSFER_WRITE) {
    1178:	2b00      	cmp	r3, #0
    117a:	d000      	beq.n	117e <_i2c_master_interrupt_handler+0x52>
    117c:	e08a      	b.n	1294 <_i2c_master_interrupt_handler+0x168>
			_i2c_master_write(module);
    117e:	f7ff ffb9 	bl	10f4 <_i2c_master_write>
    1182:	e033      	b.n	11ec <_i2c_master_interrupt_handler+0xc0>
		else if (i2c_module->STATUS.reg & SERCOM_I2CM_STATUS_RXNACK) {
    1184:	8b6a      	ldrh	r2, [r5, #26]
    1186:	0752      	lsls	r2, r2, #29
    1188:	d5ed      	bpl.n	1166 <_i2c_master_interrupt_handler+0x3a>
			module->status           = STATUS_ERR_BAD_ADDRESS;
    118a:	2218      	movs	r2, #24
    118c:	77f2      	strb	r2, [r6, #31]
			module->buffer_remaining = 0;
    118e:	83a3      	strh	r3, [r4, #28]
			if (module->send_stop) {
    1190:	7aa3      	ldrb	r3, [r4, #10]
    1192:	2b00      	cmp	r3, #0
    1194:	d0e7      	beq.n	1166 <_i2c_master_interrupt_handler+0x3a>
				_i2c_master_wait_for_sync(module);
    1196:	0020      	movs	r0, r4
    1198:	f7ff ff6f 	bl	107a <_i2c_master_wait_for_sync>
				i2c_module->CTRLB.reg |= SERCOM_I2CM_CTRLB_CMD(3);
    119c:	23c0      	movs	r3, #192	; 0xc0
    119e:	686a      	ldr	r2, [r5, #4]
    11a0:	029b      	lsls	r3, r3, #10
    11a2:	4313      	orrs	r3, r2
    11a4:	606b      	str	r3, [r5, #4]
    11a6:	e7de      	b.n	1166 <_i2c_master_interrupt_handler+0x3a>
	} else if ((module->buffer_length > 0) && (module->buffer_remaining <= 0) &&
    11a8:	8b62      	ldrh	r2, [r4, #26]
    11aa:	2a00      	cmp	r2, #0
    11ac:	d05f      	beq.n	126e <_i2c_master_interrupt_handler+0x142>
    11ae:	8ba2      	ldrh	r2, [r4, #28]
    11b0:	2a00      	cmp	r2, #0
    11b2:	d15c      	bne.n	126e <_i2c_master_interrupt_handler+0x142>
			(module->status == STATUS_BUSY) &&
    11b4:	7ff2      	ldrb	r2, [r6, #31]
	} else if ((module->buffer_length > 0) && (module->buffer_remaining <= 0) &&
    11b6:	2a05      	cmp	r2, #5
    11b8:	d159      	bne.n	126e <_i2c_master_interrupt_handler+0x142>
			(module->transfer_direction == I2C_TRANSFER_WRITE)) {
    11ba:	1d62      	adds	r2, r4, #5
    11bc:	7fd2      	ldrb	r2, [r2, #31]
    11be:	b2d2      	uxtb	r2, r2
			(module->status == STATUS_BUSY) &&
    11c0:	2a00      	cmp	r2, #0
    11c2:	d154      	bne.n	126e <_i2c_master_interrupt_handler+0x142>
		i2c_module->INTENCLR.reg =
    11c4:	2303      	movs	r3, #3
    11c6:	752b      	strb	r3, [r5, #20]
		module->buffer_length = 0;
    11c8:	8362      	strh	r2, [r4, #26]
		module->status        = STATUS_OK;
    11ca:	77f2      	strb	r2, [r6, #31]
		if (module->send_stop) {
    11cc:	7aa3      	ldrb	r3, [r4, #10]
    11ce:	2b00      	cmp	r3, #0
    11d0:	d04a      	beq.n	1268 <_i2c_master_interrupt_handler+0x13c>
			_i2c_master_wait_for_sync(module);
    11d2:	0020      	movs	r0, r4
    11d4:	f7ff ff51 	bl	107a <_i2c_master_wait_for_sync>
			i2c_module->CTRLB.reg |= SERCOM_I2CM_CTRLB_CMD(3);
    11d8:	23c0      	movs	r3, #192	; 0xc0
    11da:	686a      	ldr	r2, [r5, #4]
    11dc:	029b      	lsls	r3, r3, #10
    11de:	4313      	orrs	r3, r2
    11e0:	606b      	str	r3, [r5, #4]
		if (callback_mask & (1 << I2C_MASTER_CALLBACK_WRITE_COMPLETE)) {
    11e2:	07fb      	lsls	r3, r7, #31
    11e4:	d502      	bpl.n	11ec <_i2c_master_interrupt_handler+0xc0>
			module->callbacks[I2C_MASTER_CALLBACK_WRITE_COMPLETE](module);
    11e6:	68e3      	ldr	r3, [r4, #12]
    11e8:	0020      	movs	r0, r4
    11ea:	4798      	blx	r3
			_i2c_master_read(module);
		}
	}

	/* Check if read buffer transfer is complete */
	if ((module->buffer_length > 0) && (module->buffer_remaining <= 0) &&
    11ec:	8b63      	ldrh	r3, [r4, #26]
    11ee:	2b00      	cmp	r3, #0
    11f0:	d01b      	beq.n	122a <_i2c_master_interrupt_handler+0xfe>
    11f2:	8ba3      	ldrh	r3, [r4, #28]
    11f4:	2b00      	cmp	r3, #0
    11f6:	d118      	bne.n	122a <_i2c_master_interrupt_handler+0xfe>
			(module->status == STATUS_BUSY) &&
    11f8:	7ff3      	ldrb	r3, [r6, #31]
	if ((module->buffer_length > 0) && (module->buffer_remaining <= 0) &&
    11fa:	2b05      	cmp	r3, #5
    11fc:	d115      	bne.n	122a <_i2c_master_interrupt_handler+0xfe>
			(module->transfer_direction == I2C_TRANSFER_READ)) {
    11fe:	1d63      	adds	r3, r4, #5
    1200:	7fda      	ldrb	r2, [r3, #31]
			(module->status == STATUS_BUSY) &&
    1202:	2a01      	cmp	r2, #1
    1204:	d111      	bne.n	122a <_i2c_master_interrupt_handler+0xfe>
		
		/* Clear read interrupt flag */
		if (i2c_module->INTFLAG.reg & SERCOM_I2CM_INTFLAG_SB) {
    1206:	7e29      	ldrb	r1, [r5, #24]
    1208:	3201      	adds	r2, #1
    120a:	4211      	tst	r1, r2
    120c:	d000      	beq.n	1210 <_i2c_master_interrupt_handler+0xe4>
			i2c_module->INTFLAG.reg = SERCOM_I2CM_INTFLAG_SB;
    120e:	762a      	strb	r2, [r5, #24]
		}
		/* Stop packet operation */
		i2c_module->INTENCLR.reg =
    1210:	2203      	movs	r2, #3
    1212:	752a      	strb	r2, [r5, #20]
				SERCOM_I2CM_INTENCLR_MB | SERCOM_I2CM_INTENCLR_SB;
		module->buffer_length = 0;
    1214:	2200      	movs	r2, #0
    1216:	8362      	strh	r2, [r4, #26]
		module->status        = STATUS_OK;
    1218:	77f2      	strb	r2, [r6, #31]

		/* Call appropriate callback if enabled and registered */
		if ((callback_mask & (1 << I2C_MASTER_CALLBACK_READ_COMPLETE))
    121a:	07ba      	lsls	r2, r7, #30
    121c:	d53d      	bpl.n	129a <_i2c_master_interrupt_handler+0x16e>
				&& (module->transfer_direction == I2C_TRANSFER_READ)) {
    121e:	7fda      	ldrb	r2, [r3, #31]
    1220:	2a01      	cmp	r2, #1
    1222:	d13a      	bne.n	129a <_i2c_master_interrupt_handler+0x16e>
			module->callbacks[I2C_MASTER_CALLBACK_READ_COMPLETE](module);
    1224:	6923      	ldr	r3, [r4, #16]
		} else if ((callback_mask & (1 << I2C_MASTER_CALLBACK_WRITE_COMPLETE))
				&& (module->transfer_direction == I2C_TRANSFER_WRITE)) {
			module->callbacks[I2C_MASTER_CALLBACK_WRITE_COMPLETE](module);
    1226:	0020      	movs	r0, r4
    1228:	4798      	blx	r3
		}
	}

	/* Check for error */
	if ((module->status != STATUS_BUSY) && (module->status != STATUS_OK)) {
    122a:	7ff3      	ldrb	r3, [r6, #31]
    122c:	2b05      	cmp	r3, #5
    122e:	d01a      	beq.n	1266 <_i2c_master_interrupt_handler+0x13a>
    1230:	7ff3      	ldrb	r3, [r6, #31]
    1232:	2b00      	cmp	r3, #0
    1234:	d017      	beq.n	1266 <_i2c_master_interrupt_handler+0x13a>
		/* Stop packet operation */
		i2c_module->INTENCLR.reg = SERCOM_I2CM_INTENCLR_MB |
    1236:	2303      	movs	r3, #3
    1238:	752b      	strb	r3, [r5, #20]
				SERCOM_I2CM_INTENCLR_SB;

		module->buffer_length = 0;
    123a:	2300      	movs	r3, #0
    123c:	8363      	strh	r3, [r4, #26]
		module->buffer_remaining = 0;
    123e:	83a3      	strh	r3, [r4, #28]

		/* Send nack and stop command unless arbitration is lost */
		if ((module->status != STATUS_ERR_PACKET_COLLISION) &&
    1240:	7ff3      	ldrb	r3, [r6, #31]
    1242:	2b41      	cmp	r3, #65	; 0x41
    1244:	d00a      	beq.n	125c <_i2c_master_interrupt_handler+0x130>
    1246:	7aa3      	ldrb	r3, [r4, #10]
    1248:	2b00      	cmp	r3, #0
    124a:	d007      	beq.n	125c <_i2c_master_interrupt_handler+0x130>
				module->send_stop) {
			_i2c_master_wait_for_sync(module);
    124c:	0020      	movs	r0, r4
    124e:	f7ff ff14 	bl	107a <_i2c_master_wait_for_sync>
			i2c_module->CTRLB.reg |= SERCOM_I2CM_CTRLB_ACKACT |
    1252:	23e0      	movs	r3, #224	; 0xe0
    1254:	686a      	ldr	r2, [r5, #4]
    1256:	02db      	lsls	r3, r3, #11
    1258:	4313      	orrs	r3, r2
    125a:	606b      	str	r3, [r5, #4]
					SERCOM_I2CM_CTRLB_CMD(3);
		}

		/* Call error callback if enabled and registered */
		if (callback_mask & (1 << I2C_MASTER_CALLBACK_ERROR)) {
    125c:	077b      	lsls	r3, r7, #29
    125e:	d502      	bpl.n	1266 <_i2c_master_interrupt_handler+0x13a>
			module->callbacks[I2C_MASTER_CALLBACK_ERROR](module);
    1260:	6963      	ldr	r3, [r4, #20]
    1262:	0020      	movs	r0, r4
    1264:	4798      	blx	r3
		}
	}
}
    1266:	bdf8      	pop	{r3, r4, r5, r6, r7, pc}
			i2c_module->INTFLAG.reg = SERCOM_I2CM_INTFLAG_MB;
    1268:	2301      	movs	r3, #1
    126a:	762b      	strb	r3, [r5, #24]
    126c:	e7b9      	b.n	11e2 <_i2c_master_interrupt_handler+0xb6>
	} else if ((module->buffer_length > 0) && (module->buffer_remaining > 0)){
    126e:	8b62      	ldrh	r2, [r4, #26]
    1270:	2a00      	cmp	r2, #0
    1272:	d0bb      	beq.n	11ec <_i2c_master_interrupt_handler+0xc0>
    1274:	8ba2      	ldrh	r2, [r4, #28]
    1276:	2a00      	cmp	r2, #0
    1278:	d0b8      	beq.n	11ec <_i2c_master_interrupt_handler+0xc0>
		if ((!(i2c_module->STATUS.reg & SERCOM_I2CM_STATUS_BUSSTATE(2))) &&
    127a:	8b6a      	ldrh	r2, [r5, #26]
    127c:	0692      	lsls	r2, r2, #26
    127e:	d500      	bpl.n	1282 <_i2c_master_interrupt_handler+0x156>
    1280:	e777      	b.n	1172 <_i2c_master_interrupt_handler+0x46>
    1282:	2b00      	cmp	r3, #0
    1284:	d003      	beq.n	128e <_i2c_master_interrupt_handler+0x162>
				(!(sclsm_flag && (module->buffer_remaining == 1))))	{
    1286:	8ba3      	ldrh	r3, [r4, #28]
    1288:	2b01      	cmp	r3, #1
    128a:	d100      	bne.n	128e <_i2c_master_interrupt_handler+0x162>
    128c:	e771      	b.n	1172 <_i2c_master_interrupt_handler+0x46>
			module->status = STATUS_ERR_PACKET_COLLISION;
    128e:	2341      	movs	r3, #65	; 0x41
    1290:	77f3      	strb	r3, [r6, #31]
    1292:	e7ab      	b.n	11ec <_i2c_master_interrupt_handler+0xc0>
			_i2c_master_read(module);
    1294:	f7ff fef7 	bl	1086 <_i2c_master_read>
    1298:	e7a8      	b.n	11ec <_i2c_master_interrupt_handler+0xc0>
		} else if ((callback_mask & (1 << I2C_MASTER_CALLBACK_WRITE_COMPLETE))
    129a:	07fa      	lsls	r2, r7, #31
    129c:	d5c5      	bpl.n	122a <_i2c_master_interrupt_handler+0xfe>
				&& (module->transfer_direction == I2C_TRANSFER_WRITE)) {
    129e:	7fdb      	ldrb	r3, [r3, #31]
    12a0:	2b00      	cmp	r3, #0
    12a2:	d1c2      	bne.n	122a <_i2c_master_interrupt_handler+0xfe>
			module->callbacks[I2C_MASTER_CALLBACK_WRITE_COMPLETE](module);
    12a4:	68e3      	ldr	r3, [r4, #12]
    12a6:	e7be      	b.n	1226 <_i2c_master_interrupt_handler+0xfa>
    12a8:	20000204 	.word	0x20000204

000012ac <sercom_set_gclk_generator>:
 *                                         forced.
 */
enum status_code sercom_set_gclk_generator(
		const enum gclk_generator generator_source,
		const bool force_change)
{
    12ac:	b537      	push	{r0, r1, r2, r4, r5, lr}
	/* Check if valid option */
	if (!_sercom_config.generator_is_set || force_change) {
    12ae:	4c0d      	ldr	r4, [pc, #52]	; (12e4 <sercom_set_gclk_generator+0x38>)
{
    12b0:	0005      	movs	r5, r0
	if (!_sercom_config.generator_is_set || force_change) {
    12b2:	7823      	ldrb	r3, [r4, #0]
    12b4:	2b00      	cmp	r3, #0
    12b6:	d001      	beq.n	12bc <sercom_set_gclk_generator+0x10>
    12b8:	2900      	cmp	r1, #0
    12ba:	d00c      	beq.n	12d6 <sercom_set_gclk_generator+0x2a>
		/* Create and fill a GCLK configuration structure for the new config */
		struct system_gclk_chan_config gclk_chan_conf;
		system_gclk_chan_get_config_defaults(&gclk_chan_conf);
		gclk_chan_conf.source_generator = generator_source;
    12bc:	a901      	add	r1, sp, #4
		system_gclk_chan_set_config(SERCOM_GCLK_ID, &gclk_chan_conf);
    12be:	200d      	movs	r0, #13
		gclk_chan_conf.source_generator = generator_source;
    12c0:	700d      	strb	r5, [r1, #0]
		system_gclk_chan_set_config(SERCOM_GCLK_ID, &gclk_chan_conf);
    12c2:	f000 fb8b 	bl	19dc <system_gclk_chan_set_config>
		system_gclk_chan_enable(SERCOM_GCLK_ID);
    12c6:	200d      	movs	r0, #13
    12c8:	f000 fb4c 	bl	1964 <system_gclk_chan_enable>

		/* Save config */
		_sercom_config.generator_source = generator_source;
		_sercom_config.generator_is_set = true;
    12cc:	2301      	movs	r3, #1

		return STATUS_OK;
    12ce:	2000      	movs	r0, #0
		_sercom_config.generator_source = generator_source;
    12d0:	7065      	strb	r5, [r4, #1]
		_sercom_config.generator_is_set = true;
    12d2:	7023      	strb	r3, [r4, #0]
		return STATUS_OK;
	}

	/* Return invalid config to already initialized GCLK */
	return STATUS_ERR_ALREADY_INITIALIZED;
}
    12d4:	bd3e      	pop	{r1, r2, r3, r4, r5, pc}
	} else if (generator_source == _sercom_config.generator_source) {
    12d6:	7863      	ldrb	r3, [r4, #1]
		return STATUS_OK;
    12d8:	0008      	movs	r0, r1
	} else if (generator_source == _sercom_config.generator_source) {
    12da:	42ab      	cmp	r3, r5
    12dc:	d0fa      	beq.n	12d4 <sercom_set_gclk_generator+0x28>
	return STATUS_ERR_ALREADY_INITIALIZED;
    12de:	201d      	movs	r0, #29
    12e0:	e7f8      	b.n	12d4 <sercom_set_gclk_generator+0x28>
    12e2:	46c0      	nop			; (mov r8, r8)
    12e4:	2000006d 	.word	0x2000006d

000012e8 <_sercom_get_default_pad>:
 */
uint32_t _sercom_get_default_pad(
		Sercom *const sercom_module,
		const uint8_t pad)
{
	switch ((uintptr_t)sercom_module) {
    12e8:	4a1d      	ldr	r2, [pc, #116]	; (1360 <_sercom_get_default_pad+0x78>)
{
    12ea:	0003      	movs	r3, r0
    12ec:	b500      	push	{lr}
    12ee:	0008      	movs	r0, r1
	switch ((uintptr_t)sercom_module) {
    12f0:	4293      	cmp	r3, r2
    12f2:	d013      	beq.n	131c <_sercom_get_default_pad+0x34>
    12f4:	4a1b      	ldr	r2, [pc, #108]	; (1364 <_sercom_get_default_pad+0x7c>)
    12f6:	4293      	cmp	r3, r2
    12f8:	d01d      	beq.n	1336 <_sercom_get_default_pad+0x4e>
    12fa:	4a1b      	ldr	r2, [pc, #108]	; (1368 <_sercom_get_default_pad+0x80>)
    12fc:	4293      	cmp	r3, r2
    12fe:	d127      	bne.n	1350 <_sercom_get_default_pad+0x68>
		/* Auto-generate a lookup table for the default SERCOM pad defaults */
		MREPEAT(SERCOM_INST_NUM, _SERCOM_PAD_DEFAULTS_CASE, pad)
	}

	Assert(false);
	return 0;
    1300:	2300      	movs	r3, #0
		MREPEAT(SERCOM_INST_NUM, _SERCOM_PAD_DEFAULTS_CASE, pad)
    1302:	2903      	cmp	r1, #3
    1304:	d804      	bhi.n	1310 <_sercom_get_default_pad+0x28>
    1306:	f001 f80d 	bl	2324 <__gnu_thumb1_case_uqi>
    130a:	0225      	.short	0x0225
    130c:	0705      	.short	0x0705
    130e:	4b17      	ldr	r3, [pc, #92]	; (136c <_sercom_get_default_pad+0x84>)
}
    1310:	0018      	movs	r0, r3
    1312:	bd00      	pop	{pc}
		MREPEAT(SERCOM_INST_NUM, _SERCOM_PAD_DEFAULTS_CASE, pad)
    1314:	4b16      	ldr	r3, [pc, #88]	; (1370 <_sercom_get_default_pad+0x88>)
    1316:	e7fb      	b.n	1310 <_sercom_get_default_pad+0x28>
    1318:	4b16      	ldr	r3, [pc, #88]	; (1374 <_sercom_get_default_pad+0x8c>)
    131a:	e7f9      	b.n	1310 <_sercom_get_default_pad+0x28>
	return 0;
    131c:	2300      	movs	r3, #0
		MREPEAT(SERCOM_INST_NUM, _SERCOM_PAD_DEFAULTS_CASE, pad)
    131e:	2903      	cmp	r1, #3
    1320:	d8f6      	bhi.n	1310 <_sercom_get_default_pad+0x28>
    1322:	f000 ffff 	bl	2324 <__gnu_thumb1_case_uqi>
    1326:	0219      	.short	0x0219
    1328:	0604      	.short	0x0604
    132a:	4b13      	ldr	r3, [pc, #76]	; (1378 <_sercom_get_default_pad+0x90>)
    132c:	e7f0      	b.n	1310 <_sercom_get_default_pad+0x28>
    132e:	4b13      	ldr	r3, [pc, #76]	; (137c <_sercom_get_default_pad+0x94>)
    1330:	e7ee      	b.n	1310 <_sercom_get_default_pad+0x28>
    1332:	4b13      	ldr	r3, [pc, #76]	; (1380 <_sercom_get_default_pad+0x98>)
    1334:	e7ec      	b.n	1310 <_sercom_get_default_pad+0x28>
	return 0;
    1336:	2300      	movs	r3, #0
		MREPEAT(SERCOM_INST_NUM, _SERCOM_PAD_DEFAULTS_CASE, pad)
    1338:	2903      	cmp	r1, #3
    133a:	d8e9      	bhi.n	1310 <_sercom_get_default_pad+0x28>
    133c:	f000 fff2 	bl	2324 <__gnu_thumb1_case_uqi>
    1340:	0604020e 	.word	0x0604020e
    1344:	4b0f      	ldr	r3, [pc, #60]	; (1384 <_sercom_get_default_pad+0x9c>)
    1346:	e7e3      	b.n	1310 <_sercom_get_default_pad+0x28>
    1348:	4b0f      	ldr	r3, [pc, #60]	; (1388 <_sercom_get_default_pad+0xa0>)
    134a:	e7e1      	b.n	1310 <_sercom_get_default_pad+0x28>
    134c:	4b0f      	ldr	r3, [pc, #60]	; (138c <_sercom_get_default_pad+0xa4>)
    134e:	e7df      	b.n	1310 <_sercom_get_default_pad+0x28>
	return 0;
    1350:	2300      	movs	r3, #0
    1352:	e7dd      	b.n	1310 <_sercom_get_default_pad+0x28>
		MREPEAT(SERCOM_INST_NUM, _SERCOM_PAD_DEFAULTS_CASE, pad)
    1354:	4b0e      	ldr	r3, [pc, #56]	; (1390 <_sercom_get_default_pad+0xa8>)
    1356:	e7db      	b.n	1310 <_sercom_get_default_pad+0x28>
    1358:	4b0e      	ldr	r3, [pc, #56]	; (1394 <_sercom_get_default_pad+0xac>)
    135a:	e7d9      	b.n	1310 <_sercom_get_default_pad+0x28>
    135c:	4b0e      	ldr	r3, [pc, #56]	; (1398 <_sercom_get_default_pad+0xb0>)
    135e:	e7d7      	b.n	1310 <_sercom_get_default_pad+0x28>
    1360:	42000c00 	.word	0x42000c00
    1364:	42001000 	.word	0x42001000
    1368:	42000800 	.word	0x42000800
    136c:	00050003 	.word	0x00050003
    1370:	00060003 	.word	0x00060003
    1374:	00070003 	.word	0x00070003
    1378:	00170002 	.word	0x00170002
    137c:	001e0003 	.word	0x001e0003
    1380:	001f0003 	.word	0x001f0003
    1384:	00170003 	.word	0x00170003
    1388:	00100003 	.word	0x00100003
    138c:	00190003 	.word	0x00190003
    1390:	00040003 	.word	0x00040003
    1394:	00160002 	.word	0x00160002
    1398:	00160003 	.word	0x00160003

0000139c <_sercom_get_sercom_inst_index>:
 *
 * \return Index of given instance.
 */
uint8_t _sercom_get_sercom_inst_index(
		Sercom *const sercom_instance)
{
    139c:	b57f      	push	{r0, r1, r2, r3, r4, r5, r6, lr}
	/* Save all available SERCOM instances for compare */
	Sercom *sercom_instances[SERCOM_INST_NUM] = SERCOM_INSTS;
    139e:	4b0c      	ldr	r3, [pc, #48]	; (13d0 <_sercom_get_sercom_inst_index+0x34>)
{
    13a0:	0001      	movs	r1, r0
	Sercom *sercom_instances[SERCOM_INST_NUM] = SERCOM_INSTS;
    13a2:	0018      	movs	r0, r3
    13a4:	aa01      	add	r2, sp, #4
    13a6:	c870      	ldmia	r0!, {r4, r5, r6}
    13a8:	c270      	stmia	r2!, {r4, r5, r6}

	/* Find index for sercom instance */
	for (uint32_t i = 0; i < SERCOM_INST_NUM; i++) {
		if ((uintptr_t)sercom_instance == (uintptr_t)sercom_instances[i]) {
    13aa:	9a01      	ldr	r2, [sp, #4]
    13ac:	428a      	cmp	r2, r1
    13ae:	d00a      	beq.n	13c6 <_sercom_get_sercom_inst_index+0x2a>
    13b0:	685a      	ldr	r2, [r3, #4]
    13b2:	428a      	cmp	r2, r1
    13b4:	d009      	beq.n	13ca <_sercom_get_sercom_inst_index+0x2e>
    13b6:	689b      	ldr	r3, [r3, #8]
		}
	}

	/* Invalid data given */
	Assert(false);
	return 0;
    13b8:	2000      	movs	r0, #0
		if ((uintptr_t)sercom_instance == (uintptr_t)sercom_instances[i]) {
    13ba:	428b      	cmp	r3, r1
    13bc:	d101      	bne.n	13c2 <_sercom_get_sercom_inst_index+0x26>
	for (uint32_t i = 0; i < SERCOM_INST_NUM; i++) {
    13be:	3002      	adds	r0, #2
			return i;
    13c0:	b2c0      	uxtb	r0, r0
}
    13c2:	b004      	add	sp, #16
    13c4:	bd70      	pop	{r4, r5, r6, pc}
	for (uint32_t i = 0; i < SERCOM_INST_NUM; i++) {
    13c6:	2000      	movs	r0, #0
    13c8:	e7fa      	b.n	13c0 <_sercom_get_sercom_inst_index+0x24>
    13ca:	2001      	movs	r0, #1
    13cc:	e7f8      	b.n	13c0 <_sercom_get_sercom_inst_index+0x24>
    13ce:	46c0      	nop			; (mov r8, r8)
    13d0:	00002500 	.word	0x00002500

000013d4 <_sercom_default_handler>:
 */
static void _sercom_default_handler(
		const uint8_t instance)
{
	Assert(false);
}
    13d4:	4770      	bx	lr
	...

000013d8 <_sercom_set_handler>:
 * \param[in]  interrupt_handler  Pointer to instance callback handler.
 */
void _sercom_set_handler(
		const uint8_t instance,
		const sercom_handler_t interrupt_handler)
{
    13d8:	b570      	push	{r4, r5, r6, lr}
	/* Initialize handlers with default handler and device instances with 0 */
	if (_handler_table_initialized == false) {
    13da:	4e09      	ldr	r6, [pc, #36]	; (1400 <_sercom_set_handler+0x28>)
    13dc:	4b09      	ldr	r3, [pc, #36]	; (1404 <_sercom_set_handler+0x2c>)
    13de:	7832      	ldrb	r2, [r6, #0]
    13e0:	2a00      	cmp	r2, #0
    13e2:	d109      	bne.n	13f8 <_sercom_set_handler+0x20>
		for (uint32_t i = 0; i < SERCOM_INST_NUM; i++) {
			_sercom_interrupt_handlers[i] = &_sercom_default_handler;
			_sercom_instances[i] = NULL;
    13e4:	4c08      	ldr	r4, [pc, #32]	; (1408 <_sercom_set_handler+0x30>)
			_sercom_interrupt_handlers[i] = &_sercom_default_handler;
    13e6:	4d09      	ldr	r5, [pc, #36]	; (140c <_sercom_set_handler+0x34>)
			_sercom_instances[i] = NULL;
    13e8:	6022      	str	r2, [r4, #0]
    13ea:	6062      	str	r2, [r4, #4]
    13ec:	60a2      	str	r2, [r4, #8]
		}

		_handler_table_initialized = true;
    13ee:	3201      	adds	r2, #1
			_sercom_interrupt_handlers[i] = &_sercom_default_handler;
    13f0:	601d      	str	r5, [r3, #0]
    13f2:	605d      	str	r5, [r3, #4]
    13f4:	609d      	str	r5, [r3, #8]
		_handler_table_initialized = true;
    13f6:	7032      	strb	r2, [r6, #0]
	}

	/* Save interrupt handler */
	_sercom_interrupt_handlers[instance] = interrupt_handler;
    13f8:	0080      	lsls	r0, r0, #2
    13fa:	5019      	str	r1, [r3, r0]
}
    13fc:	bd70      	pop	{r4, r5, r6, pc}
    13fe:	46c0      	nop			; (mov r8, r8)
    1400:	2000006f 	.word	0x2000006f
    1404:	20000070 	.word	0x20000070
    1408:	20000204 	.word	0x20000204
    140c:	000013d5 	.word	0x000013d5

00001410 <_sercom_get_interrupt_vector>:
 * \retval SYSTEM_INTERRUPT_MODULE_SERCOM7
 */
enum system_interrupt_vector _sercom_get_interrupt_vector(
		Sercom *const sercom_instance)
{
	const uint8_t sercom_int_vectors[SERCOM_INST_NUM] =
    1410:	2309      	movs	r3, #9
{
    1412:	b513      	push	{r0, r1, r4, lr}
	const uint8_t sercom_int_vectors[SERCOM_INST_NUM] =
    1414:	ac01      	add	r4, sp, #4
    1416:	7023      	strb	r3, [r4, #0]
    1418:	3301      	adds	r3, #1
    141a:	7063      	strb	r3, [r4, #1]
    141c:	3301      	adds	r3, #1
    141e:	70a3      	strb	r3, [r4, #2]
		{
			MREPEAT(SERCOM_INST_NUM, _SERCOM_INTERRUPT_VECT_NUM, ~)
		};

	/* Retrieve the index of the SERCOM being requested */
	uint8_t instance_index = _sercom_get_sercom_inst_index(sercom_instance);
    1420:	f7ff ffbc 	bl	139c <_sercom_get_sercom_inst_index>

	/* Get the vector number from the lookup table for the requested SERCOM */
	return (enum system_interrupt_vector)sercom_int_vectors[instance_index];
    1424:	5620      	ldrsb	r0, [r4, r0]
}
    1426:	bd16      	pop	{r1, r2, r4, pc}

00001428 <SERCOM0_Handler>:

/** Auto-generate a set of interrupt handlers for each SERCOM in the device */
MREPEAT(SERCOM_INST_NUM, _SERCOM_INTERRUPT_HANDLER, ~)
    1428:	b510      	push	{r4, lr}
    142a:	4b02      	ldr	r3, [pc, #8]	; (1434 <SERCOM0_Handler+0xc>)
    142c:	2000      	movs	r0, #0
    142e:	681b      	ldr	r3, [r3, #0]
    1430:	4798      	blx	r3
    1432:	bd10      	pop	{r4, pc}
    1434:	20000070 	.word	0x20000070

00001438 <SERCOM1_Handler>:
    1438:	b510      	push	{r4, lr}
    143a:	4b02      	ldr	r3, [pc, #8]	; (1444 <SERCOM1_Handler+0xc>)
    143c:	2001      	movs	r0, #1
    143e:	685b      	ldr	r3, [r3, #4]
    1440:	4798      	blx	r3
    1442:	bd10      	pop	{r4, pc}
    1444:	20000070 	.word	0x20000070

00001448 <SERCOM2_Handler>:
    1448:	b510      	push	{r4, lr}
    144a:	4b02      	ldr	r3, [pc, #8]	; (1454 <SERCOM2_Handler+0xc>)
    144c:	2002      	movs	r0, #2
    144e:	689b      	ldr	r3, [r3, #8]
    1450:	4798      	blx	r3
    1452:	bd10      	pop	{r4, pc}
    1454:	20000070 	.word	0x20000070

00001458 <_system_dfll_wait_for_sync>:
 * \internal
 * \brief Wait for sync to the DFLL control registers.
 */
static inline void _system_dfll_wait_for_sync(void)
{
	while (!(SYSCTRL->PCLKSR.reg & SYSCTRL_PCLKSR_DFLLRDY)) {
    1458:	2310      	movs	r3, #16
    145a:	4902      	ldr	r1, [pc, #8]	; (1464 <_system_dfll_wait_for_sync+0xc>)
    145c:	68ca      	ldr	r2, [r1, #12]
    145e:	421a      	tst	r2, r3
    1460:	d0fc      	beq.n	145c <_system_dfll_wait_for_sync+0x4>
		/* Wait for DFLL sync */
	}
}
    1462:	4770      	bx	lr
    1464:	40000800 	.word	0x40000800

00001468 <system_clock_source_enable.part.0>:
	case SYSTEM_CLOCK_SOURCE_XOSC32K:
		SYSCTRL->XOSC32K.reg |= SYSCTRL_XOSC32K_ENABLE;
		break;

	case SYSTEM_CLOCK_SOURCE_DFLL:
		_system_clock_inst.dfll.control |= SYSCTRL_DFLLCTRL_ENABLE;
    1468:	2202      	movs	r2, #2
enum status_code system_clock_source_enable(
    146a:	b570      	push	{r4, r5, r6, lr}
	SYSCTRL->DFLLCTRL.reg = 0;
    146c:	2600      	movs	r6, #0
		_system_clock_inst.dfll.control |= SYSCTRL_DFLLCTRL_ENABLE;
    146e:	4d0a      	ldr	r5, [pc, #40]	; (1498 <system_clock_source_enable.part.0+0x30>)
	SYSCTRL->DFLLCTRL.reg = SYSCTRL_DFLLCTRL_ENABLE;
    1470:	4c0a      	ldr	r4, [pc, #40]	; (149c <system_clock_source_enable.part.0+0x34>)
		_system_clock_inst.dfll.control |= SYSCTRL_DFLLCTRL_ENABLE;
    1472:	682b      	ldr	r3, [r5, #0]
    1474:	4313      	orrs	r3, r2
    1476:	602b      	str	r3, [r5, #0]
	SYSCTRL->DFLLCTRL.reg = SYSCTRL_DFLLCTRL_ENABLE;
    1478:	84a2      	strh	r2, [r4, #36]	; 0x24
	_system_dfll_wait_for_sync();
    147a:	f7ff ffed 	bl	1458 <_system_dfll_wait_for_sync>
	SYSCTRL->DFLLMUL.reg = _system_clock_inst.dfll.mul;
    147e:	68ab      	ldr	r3, [r5, #8]
    1480:	62e3      	str	r3, [r4, #44]	; 0x2c
	SYSCTRL->DFLLVAL.reg = _system_clock_inst.dfll.val;
    1482:	686b      	ldr	r3, [r5, #4]
    1484:	62a3      	str	r3, [r4, #40]	; 0x28
	SYSCTRL->DFLLCTRL.reg = 0;
    1486:	84a6      	strh	r6, [r4, #36]	; 0x24
	_system_dfll_wait_for_sync();
    1488:	f7ff ffe6 	bl	1458 <_system_dfll_wait_for_sync>
	SYSCTRL->DFLLCTRL.reg = _system_clock_inst.dfll.control;
    148c:	682b      	ldr	r3, [r5, #0]
		Assert(false);
		return STATUS_ERR_INVALID_ARG;
	}

	return STATUS_OK;
}
    148e:	0030      	movs	r0, r6
	SYSCTRL->DFLLCTRL.reg = _system_clock_inst.dfll.control;
    1490:	b29b      	uxth	r3, r3
    1492:	84a3      	strh	r3, [r4, #36]	; 0x24
}
    1494:	bd70      	pop	{r4, r5, r6, pc}
    1496:	46c0      	nop			; (mov r8, r8)
    1498:	2000007c 	.word	0x2000007c
    149c:	40000800 	.word	0x40000800

000014a0 <system_clock_source_get_hz>:
{
    14a0:	b570      	push	{r4, r5, r6, lr}
	switch (clock_source) {
    14a2:	2808      	cmp	r0, #8
    14a4:	d806      	bhi.n	14b4 <system_clock_source_get_hz+0x14>
    14a6:	f000 ff3d 	bl	2324 <__gnu_thumb1_case_uqi>
    14aa:	0508      	.short	0x0508
    14ac:	12303005 	.word	0x12303005
    14b0:	150b      	.short	0x150b
    14b2:	28          	.byte	0x28
    14b3:	00          	.byte	0x00
		return 0;
    14b4:	2400      	movs	r4, #0
}
    14b6:	0020      	movs	r0, r4
    14b8:	bd70      	pop	{r4, r5, r6, pc}
		return _system_clock_inst.xosc.frequency;
    14ba:	4b16      	ldr	r3, [pc, #88]	; (1514 <system_clock_source_get_hz+0x74>)
    14bc:	691c      	ldr	r4, [r3, #16]
    14be:	e7fa      	b.n	14b6 <system_clock_source_get_hz+0x16>
		return 8000000UL >> SYSCTRL->OSC8M.bit.PRESC;
    14c0:	4b15      	ldr	r3, [pc, #84]	; (1518 <system_clock_source_get_hz+0x78>)
    14c2:	4c16      	ldr	r4, [pc, #88]	; (151c <system_clock_source_get_hz+0x7c>)
    14c4:	6a1b      	ldr	r3, [r3, #32]
    14c6:	059b      	lsls	r3, r3, #22
    14c8:	0f9b      	lsrs	r3, r3, #30
    14ca:	40dc      	lsrs	r4, r3
    14cc:	e7f3      	b.n	14b6 <system_clock_source_get_hz+0x16>
		return _system_clock_inst.xosc32k.frequency;
    14ce:	4b11      	ldr	r3, [pc, #68]	; (1514 <system_clock_source_get_hz+0x74>)
    14d0:	695c      	ldr	r4, [r3, #20]
    14d2:	e7f0      	b.n	14b6 <system_clock_source_get_hz+0x16>
		if (!(_system_clock_inst.dfll.control & SYSCTRL_DFLLCTRL_ENABLE))
    14d4:	4d0f      	ldr	r5, [pc, #60]	; (1514 <system_clock_source_get_hz+0x74>)
			return 0;
    14d6:	2400      	movs	r4, #0
		if (!(_system_clock_inst.dfll.control & SYSCTRL_DFLLCTRL_ENABLE))
    14d8:	682b      	ldr	r3, [r5, #0]
    14da:	079b      	lsls	r3, r3, #30
    14dc:	d5eb      	bpl.n	14b6 <system_clock_source_get_hz+0x16>
		_system_dfll_wait_for_sync();
    14de:	f7ff ffbb 	bl	1458 <_system_dfll_wait_for_sync>
		switch(_system_clock_inst.dfll.control &
    14e2:	2224      	movs	r2, #36	; 0x24
    14e4:	682b      	ldr	r3, [r5, #0]
    14e6:	4013      	ands	r3, r2
    14e8:	2b04      	cmp	r3, #4
    14ea:	d111      	bne.n	1510 <system_clock_source_get_hz+0x70>
			return system_gclk_chan_get_hz(SYSCTRL_GCLK_ID_DFLL48) *
    14ec:	0020      	movs	r0, r4
    14ee:	f000 fa81 	bl	19f4 <system_gclk_chan_get_hz>
					(_system_clock_inst.dfll.mul & 0xffff);
    14f2:	68ac      	ldr	r4, [r5, #8]
    14f4:	b2a4      	uxth	r4, r4
			return system_gclk_chan_get_hz(SYSCTRL_GCLK_ID_DFLL48) *
    14f6:	4344      	muls	r4, r0
    14f8:	e7dd      	b.n	14b6 <system_clock_source_get_hz+0x16>
		if (!(SYSCTRL->DPLLSTATUS.reg & SYSCTRL_DPLLSTATUS_ENABLE)) {
    14fa:	4b09      	ldr	r3, [pc, #36]	; (1520 <system_clock_source_get_hz+0x80>)
			return 0;
    14fc:	2400      	movs	r4, #0
		if (!(SYSCTRL->DPLLSTATUS.reg & SYSCTRL_DPLLSTATUS_ENABLE)) {
    14fe:	781b      	ldrb	r3, [r3, #0]
    1500:	075b      	lsls	r3, r3, #29
    1502:	d5d8      	bpl.n	14b6 <system_clock_source_get_hz+0x16>
		return _system_clock_inst.dpll.frequency;
    1504:	4b03      	ldr	r3, [pc, #12]	; (1514 <system_clock_source_get_hz+0x74>)
    1506:	68dc      	ldr	r4, [r3, #12]
    1508:	e7d5      	b.n	14b6 <system_clock_source_get_hz+0x16>
		return 32768UL;
    150a:	2480      	movs	r4, #128	; 0x80
    150c:	0224      	lsls	r4, r4, #8
    150e:	e7d2      	b.n	14b6 <system_clock_source_get_hz+0x16>
			return 48000000UL;
    1510:	4c04      	ldr	r4, [pc, #16]	; (1524 <system_clock_source_get_hz+0x84>)
    1512:	e7d0      	b.n	14b6 <system_clock_source_get_hz+0x16>
    1514:	2000007c 	.word	0x2000007c
    1518:	40000800 	.word	0x40000800
    151c:	007a1200 	.word	0x007a1200
    1520:	40000850 	.word	0x40000850
    1524:	02dc6c00 	.word	0x02dc6c00

00001528 <system_clock_source_osc8m_set_config>:
{
    1528:	b570      	push	{r4, r5, r6, lr}
	temp.bit.ONDEMAND = config->on_demand;
    152a:	7884      	ldrb	r4, [r0, #2]
	temp.bit.PRESC    = config->prescaler;
    152c:	7802      	ldrb	r2, [r0, #0]
	SYSCTRL->OSC8M = temp;
    152e:	7845      	ldrb	r5, [r0, #1]
    1530:	2001      	movs	r0, #1
    1532:	2640      	movs	r6, #64	; 0x40
    1534:	4005      	ands	r5, r0
    1536:	4020      	ands	r0, r4
    1538:	2480      	movs	r4, #128	; 0x80
	SYSCTRL_OSC8M_Type temp = SYSCTRL->OSC8M;
    153a:	4908      	ldr	r1, [pc, #32]	; (155c <system_clock_source_osc8m_set_config+0x34>)
	SYSCTRL->OSC8M = temp;
    153c:	01ad      	lsls	r5, r5, #6
	SYSCTRL_OSC8M_Type temp = SYSCTRL->OSC8M;
    153e:	6a0b      	ldr	r3, [r1, #32]
	SYSCTRL->OSC8M = temp;
    1540:	01c0      	lsls	r0, r0, #7
    1542:	43b3      	bics	r3, r6
    1544:	432b      	orrs	r3, r5
    1546:	43a3      	bics	r3, r4
    1548:	4303      	orrs	r3, r0
    154a:	2003      	movs	r0, #3
    154c:	4002      	ands	r2, r0
    154e:	4804      	ldr	r0, [pc, #16]	; (1560 <system_clock_source_osc8m_set_config+0x38>)
    1550:	0212      	lsls	r2, r2, #8
    1552:	4003      	ands	r3, r0
    1554:	4313      	orrs	r3, r2
    1556:	620b      	str	r3, [r1, #32]
}
    1558:	bd70      	pop	{r4, r5, r6, pc}
    155a:	46c0      	nop			; (mov r8, r8)
    155c:	40000800 	.word	0x40000800
    1560:	fffffcff 	.word	0xfffffcff

00001564 <system_clock_source_osc32k_set_config>:
{
    1564:	b5f7      	push	{r0, r1, r2, r4, r5, r6, r7, lr}
	SYSCTRL_OSC32K_Type temp = SYSCTRL->OSC32K;
    1566:	4f18      	ldr	r7, [pc, #96]	; (15c8 <system_clock_source_osc32k_set_config+0x64>)
	temp.bit.EN1K     = config->enable_1khz_output;
    1568:	7846      	ldrb	r6, [r0, #1]
	SYSCTRL_OSC32K_Type temp = SYSCTRL->OSC32K;
    156a:	69bb      	ldr	r3, [r7, #24]
    156c:	0019      	movs	r1, r3
	temp.bit.STARTUP  = config->startup_time;
    156e:	7803      	ldrb	r3, [r0, #0]
    1570:	9301      	str	r3, [sp, #4]
	SYSCTRL->OSC32K  = temp;
    1572:	2304      	movs	r3, #4
	temp.bit.WRTLOCK  = config->write_once;
    1574:	7942      	ldrb	r2, [r0, #5]
	temp.bit.ONDEMAND = config->on_demand;
    1576:	7904      	ldrb	r4, [r0, #4]
	temp.bit.RUNSTDBY = config->run_in_standby;
    1578:	78c5      	ldrb	r5, [r0, #3]
	temp.bit.WRTLOCK  = config->write_once;
    157a:	9200      	str	r2, [sp, #0]
	SYSCTRL->OSC32K  = temp;
    157c:	2201      	movs	r2, #1
    157e:	4399      	bics	r1, r3
    1580:	2308      	movs	r3, #8
    1582:	7880      	ldrb	r0, [r0, #2]
    1584:	4016      	ands	r6, r2
    1586:	4010      	ands	r0, r2
    1588:	0080      	lsls	r0, r0, #2
    158a:	4308      	orrs	r0, r1
    158c:	4398      	bics	r0, r3
    158e:	00f6      	lsls	r6, r6, #3
    1590:	4306      	orrs	r6, r0
    1592:	4015      	ands	r5, r2
    1594:	01a8      	lsls	r0, r5, #6
    1596:	0035      	movs	r5, r6
    1598:	3338      	adds	r3, #56	; 0x38
    159a:	439d      	bics	r5, r3
    159c:	4305      	orrs	r5, r0
    159e:	4014      	ands	r4, r2
    15a0:	01e3      	lsls	r3, r4, #7
    15a2:	2080      	movs	r0, #128	; 0x80
    15a4:	002c      	movs	r4, r5
    15a6:	4384      	bics	r4, r0
    15a8:	431c      	orrs	r4, r3
    15aa:	2307      	movs	r3, #7
    15ac:	9901      	ldr	r1, [sp, #4]
    15ae:	400b      	ands	r3, r1
    15b0:	4906      	ldr	r1, [pc, #24]	; (15cc <system_clock_source_osc32k_set_config+0x68>)
    15b2:	021b      	lsls	r3, r3, #8
    15b4:	4021      	ands	r1, r4
    15b6:	4319      	orrs	r1, r3
    15b8:	9b00      	ldr	r3, [sp, #0]
    15ba:	401a      	ands	r2, r3
    15bc:	0313      	lsls	r3, r2, #12
    15be:	4a04      	ldr	r2, [pc, #16]	; (15d0 <system_clock_source_osc32k_set_config+0x6c>)
    15c0:	400a      	ands	r2, r1
    15c2:	431a      	orrs	r2, r3
    15c4:	61ba      	str	r2, [r7, #24]
}
    15c6:	bdf7      	pop	{r0, r1, r2, r4, r5, r6, r7, pc}
    15c8:	40000800 	.word	0x40000800
    15cc:	fffff8ff 	.word	0xfffff8ff
    15d0:	ffffefff 	.word	0xffffefff

000015d4 <system_clock_source_dfll_set_config>:
{
    15d4:	b510      	push	{r4, lr}
			SYSCTRL_DFLLVAL_COARSE(config->coarse_value) |
    15d6:	7a02      	ldrb	r2, [r0, #8]
			SYSCTRL_DFLLVAL_FINE(config->fine_value);
    15d8:	8943      	ldrh	r3, [r0, #10]
			SYSCTRL_DFLLVAL_COARSE(config->coarse_value) |
    15da:	0692      	lsls	r2, r2, #26
			SYSCTRL_DFLLVAL_FINE(config->fine_value);
    15dc:	059b      	lsls	r3, r3, #22
    15de:	0d9b      	lsrs	r3, r3, #22
			SYSCTRL_DFLLVAL_COARSE(config->coarse_value) |
    15e0:	0c12      	lsrs	r2, r2, #16
    15e2:	431a      	orrs	r2, r3
	_system_clock_inst.dfll.val =
    15e4:	4b17      	ldr	r3, [pc, #92]	; (1644 <system_clock_source_dfll_set_config+0x70>)
    15e6:	605a      	str	r2, [r3, #4]
			(uint32_t)config->wakeup_lock     |
    15e8:	79c1      	ldrb	r1, [r0, #7]
    15ea:	7982      	ldrb	r2, [r0, #6]
			(uint32_t)config->quick_lock      |
    15ec:	8884      	ldrh	r4, [r0, #4]
			(uint32_t)config->wakeup_lock     |
    15ee:	430a      	orrs	r2, r1
			(uint32_t)config->quick_lock      |
    15f0:	8841      	ldrh	r1, [r0, #2]
    15f2:	4321      	orrs	r1, r4
    15f4:	430a      	orrs	r2, r1
			((uint32_t)config->on_demand << SYSCTRL_DFLLCTRL_ONDEMAND_Pos);
    15f6:	7841      	ldrb	r1, [r0, #1]
	if (config->loop_mode == SYSTEM_CLOCK_DFLL_LOOP_MODE_CLOSED) {
    15f8:	7804      	ldrb	r4, [r0, #0]
			((uint32_t)config->on_demand << SYSCTRL_DFLLCTRL_ONDEMAND_Pos);
    15fa:	01c9      	lsls	r1, r1, #7
			(uint32_t)config->chill_cycle     |
    15fc:	430a      	orrs	r2, r1
	_system_clock_inst.dfll.control =
    15fe:	601a      	str	r2, [r3, #0]
	if (config->loop_mode == SYSTEM_CLOCK_DFLL_LOOP_MODE_CLOSED) {
    1600:	2c04      	cmp	r4, #4
    1602:	d10d      	bne.n	1620 <system_clock_source_dfll_set_config+0x4c>
				SYSCTRL_DFLLMUL_CSTEP(config->coarse_max_step) |
    1604:	7b02      	ldrb	r2, [r0, #12]
				SYSCTRL_DFLLMUL_MUL(config->multiply_factor);
    1606:	8a01      	ldrh	r1, [r0, #16]
				SYSCTRL_DFLLMUL_CSTEP(config->coarse_max_step) |
    1608:	0692      	lsls	r2, r2, #26
				SYSCTRL_DFLLMUL_FSTEP(config->fine_max_step)   |
    160a:	430a      	orrs	r2, r1
    160c:	89c1      	ldrh	r1, [r0, #14]
    160e:	480e      	ldr	r0, [pc, #56]	; (1648 <system_clock_source_dfll_set_config+0x74>)
    1610:	0409      	lsls	r1, r1, #16
    1612:	4001      	ands	r1, r0
    1614:	430a      	orrs	r2, r1
		_system_clock_inst.dfll.mul =
    1616:	609a      	str	r2, [r3, #8]
		_system_clock_inst.dfll.control |= config->loop_mode;
    1618:	681a      	ldr	r2, [r3, #0]
    161a:	4314      	orrs	r4, r2
    161c:	601c      	str	r4, [r3, #0]
}
    161e:	bd10      	pop	{r4, pc}
	if (config->loop_mode == SYSTEM_CLOCK_DFLL_LOOP_MODE_USB_RECOVERY) {
    1620:	2c20      	cmp	r4, #32
    1622:	d1fc      	bne.n	161e <system_clock_source_dfll_set_config+0x4a>
				SYSCTRL_DFLLMUL_CSTEP(config->coarse_max_step) |
    1624:	7b02      	ldrb	r2, [r0, #12]
				SYSCTRL_DFLLMUL_MUL(config->multiply_factor);
    1626:	8a01      	ldrh	r1, [r0, #16]
				SYSCTRL_DFLLMUL_CSTEP(config->coarse_max_step) |
    1628:	0692      	lsls	r2, r2, #26
				SYSCTRL_DFLLMUL_FSTEP(config->fine_max_step)   |
    162a:	430a      	orrs	r2, r1
    162c:	89c1      	ldrh	r1, [r0, #14]
    162e:	4806      	ldr	r0, [pc, #24]	; (1648 <system_clock_source_dfll_set_config+0x74>)
    1630:	0409      	lsls	r1, r1, #16
    1632:	4001      	ands	r1, r0
    1634:	430a      	orrs	r2, r1
		_system_clock_inst.dfll.mul =
    1636:	609a      	str	r2, [r3, #8]
		_system_clock_inst.dfll.control |= config->loop_mode |
    1638:	6819      	ldr	r1, [r3, #0]
    163a:	4a04      	ldr	r2, [pc, #16]	; (164c <system_clock_source_dfll_set_config+0x78>)
    163c:	430a      	orrs	r2, r1
    163e:	601a      	str	r2, [r3, #0]
}
    1640:	e7ed      	b.n	161e <system_clock_source_dfll_set_config+0x4a>
    1642:	46c0      	nop			; (mov r8, r8)
    1644:	2000007c 	.word	0x2000007c
    1648:	03ff0000 	.word	0x03ff0000
    164c:	00000424 	.word	0x00000424

00001650 <system_clock_source_enable>:
{
    1650:	b510      	push	{r4, lr}
	switch (clock_source) {
    1652:	2808      	cmp	r0, #8
    1654:	d806      	bhi.n	1664 <system_clock_source_enable+0x14>
    1656:	f000 fe65 	bl	2324 <__gnu_thumb1_case_uqi>
    165a:	0514      	.short	0x0514
    165c:	1a0e0c05 	.word	0x1a0e0c05
    1660:	2007      	.short	0x2007
    1662:	23          	.byte	0x23
    1663:	00          	.byte	0x00
		return STATUS_ERR_INVALID_ARG;
    1664:	2017      	movs	r0, #23
}
    1666:	bd10      	pop	{r4, pc}
		SYSCTRL->OSC8M.reg |= SYSCTRL_OSC8M_ENABLE;
    1668:	2302      	movs	r3, #2
    166a:	4a10      	ldr	r2, [pc, #64]	; (16ac <system_clock_source_enable+0x5c>)
    166c:	6a11      	ldr	r1, [r2, #32]
    166e:	430b      	orrs	r3, r1
    1670:	6213      	str	r3, [r2, #32]
		return STATUS_OK;
    1672:	2000      	movs	r0, #0
    1674:	e7f7      	b.n	1666 <system_clock_source_enable+0x16>
		SYSCTRL->OSC32K.reg |= SYSCTRL_OSC32K_ENABLE;
    1676:	2302      	movs	r3, #2
    1678:	4a0c      	ldr	r2, [pc, #48]	; (16ac <system_clock_source_enable+0x5c>)
    167a:	6991      	ldr	r1, [r2, #24]
    167c:	430b      	orrs	r3, r1
    167e:	6193      	str	r3, [r2, #24]
    1680:	e7f7      	b.n	1672 <system_clock_source_enable+0x22>
		SYSCTRL->XOSC.reg |= SYSCTRL_XOSC_ENABLE;
    1682:	2302      	movs	r3, #2
    1684:	4a09      	ldr	r2, [pc, #36]	; (16ac <system_clock_source_enable+0x5c>)
    1686:	8a11      	ldrh	r1, [r2, #16]
    1688:	430b      	orrs	r3, r1
    168a:	8213      	strh	r3, [r2, #16]
    168c:	e7f1      	b.n	1672 <system_clock_source_enable+0x22>
		SYSCTRL->XOSC32K.reg |= SYSCTRL_XOSC32K_ENABLE;
    168e:	2302      	movs	r3, #2
    1690:	4a06      	ldr	r2, [pc, #24]	; (16ac <system_clock_source_enable+0x5c>)
    1692:	8a91      	ldrh	r1, [r2, #20]
    1694:	430b      	orrs	r3, r1
    1696:	8293      	strh	r3, [r2, #20]
    1698:	e7eb      	b.n	1672 <system_clock_source_enable+0x22>
    169a:	f7ff fee5 	bl	1468 <system_clock_source_enable.part.0>
    169e:	e7e2      	b.n	1666 <system_clock_source_enable+0x16>
		SYSCTRL->DPLLCTRLA.reg |= SYSCTRL_DPLLCTRLA_ENABLE;
    16a0:	2302      	movs	r3, #2
    16a2:	4a03      	ldr	r2, [pc, #12]	; (16b0 <system_clock_source_enable+0x60>)
    16a4:	7811      	ldrb	r1, [r2, #0]
    16a6:	430b      	orrs	r3, r1
    16a8:	7013      	strb	r3, [r2, #0]
    16aa:	e7e2      	b.n	1672 <system_clock_source_enable+0x22>
    16ac:	40000800 	.word	0x40000800
    16b0:	40000844 	.word	0x40000844

000016b4 <system_clock_init>:
 */
void system_clock_init(void)
{
	/* Various bits in the INTFLAG register can be set to one at startup.
	   This will ensure that these bits are cleared */
	SYSCTRL->INTFLAG.reg = SYSCTRL_INTFLAG_BOD33RDY | SYSCTRL_INTFLAG_BOD33DET |
    16b4:	23c2      	movs	r3, #194	; 0xc2
static inline void system_flash_set_waitstates(uint8_t wait_states)
{
	Assert(NVMCTRL_CTRLB_RWS((uint32_t)wait_states) ==
			((uint32_t)wait_states << NVMCTRL_CTRLB_RWS_Pos));

	NVMCTRL->CTRLB.bit.RWS = wait_states;
    16b6:	221e      	movs	r2, #30
{
    16b8:	b5f0      	push	{r4, r5, r6, r7, lr}
	for (gclk_id = 0; gclk_id < GCLK_NUM; gclk_id++) {
    16ba:	2500      	movs	r5, #0
	SYSCTRL->INTFLAG.reg = SYSCTRL_INTFLAG_BOD33RDY | SYSCTRL_INTFLAG_BOD33DET |
    16bc:	4e48      	ldr	r6, [pc, #288]	; (17e0 <system_clock_init+0x12c>)
    16be:	00db      	lsls	r3, r3, #3
    16c0:	4948      	ldr	r1, [pc, #288]	; (17e4 <system_clock_init+0x130>)
    16c2:	60b3      	str	r3, [r6, #8]
    16c4:	684b      	ldr	r3, [r1, #4]
{
    16c6:	b08d      	sub	sp, #52	; 0x34
    16c8:	4393      	bics	r3, r2
    16ca:	3a1c      	subs	r2, #28
    16cc:	4313      	orrs	r3, r2
	gclk_conf.source_generator = GCLK_GENERATOR_2;
    16ce:	ac07      	add	r4, sp, #28
    16d0:	604b      	str	r3, [r1, #4]
    16d2:	7022      	strb	r2, [r4, #0]
		system_gclk_chan_set_config(gclk_id, &gclk_conf);
    16d4:	b2e8      	uxtb	r0, r5
    16d6:	0021      	movs	r1, r4
	for (gclk_id = 0; gclk_id < GCLK_NUM; gclk_id++) {
    16d8:	3501      	adds	r5, #1
		system_gclk_chan_set_config(gclk_id, &gclk_conf);
    16da:	f000 f97f 	bl	19dc <system_gclk_chan_set_config>
	for (gclk_id = 0; gclk_id < GCLK_NUM; gclk_id++) {
    16de:	2d18      	cmp	r5, #24
    16e0:	d1f8      	bne.n	16d4 <system_clock_init+0x20>


	/* OSCK32K */
#if CONF_CLOCK_OSC32K_ENABLE == true
	SYSCTRL->OSC32K.bit.CALIB =
			(*(uint32_t *)FUSES_OSC32K_ADDR >> FUSES_OSC32K_Pos);
    16e2:	4f41      	ldr	r7, [pc, #260]	; (17e8 <system_clock_init+0x134>)
	SYSCTRL->OSC32K.bit.CALIB =
    16e4:	69b2      	ldr	r2, [r6, #24]
			(*(uint32_t *)FUSES_OSC32K_ADDR >> FUSES_OSC32K_Pos);
    16e6:	683b      	ldr	r3, [r7, #0]
	SYSCTRL->OSC32K.bit.CALIB =
    16e8:	4940      	ldr	r1, [pc, #256]	; (17ec <system_clock_init+0x138>)
			(*(uint32_t *)FUSES_OSC32K_ADDR >> FUSES_OSC32K_Pos);
    16ea:	04db      	lsls	r3, r3, #19
	SYSCTRL->OSC32K.bit.CALIB =
    16ec:	0e5b      	lsrs	r3, r3, #25
    16ee:	400a      	ands	r2, r1
    16f0:	041b      	lsls	r3, r3, #16
    16f2:	4313      	orrs	r3, r2
    16f4:	61b3      	str	r3, [r6, #24]
	config->enable_1khz_output  = true;
    16f6:	2301      	movs	r3, #1
	config->run_in_standby      = false;
    16f8:	2500      	movs	r5, #0
	config->enable_1khz_output  = true;
    16fa:	a802      	add	r0, sp, #8
    16fc:	7043      	strb	r3, [r0, #1]
	config->enable_32khz_output = true;
    16fe:	7083      	strb	r3, [r0, #2]
	config->on_demand           = true;
    1700:	7103      	strb	r3, [r0, #4]
	config->startup_time        = SYSTEM_OSC32K_STARTUP_130;
    1702:	3306      	adds	r3, #6
    1704:	7003      	strb	r3, [r0, #0]
	config->run_in_standby      = false;
    1706:	70c5      	strb	r5, [r0, #3]
	config->write_once          = false;
    1708:	7145      	strb	r5, [r0, #5]
	osc32k_conf.enable_1khz_output  = CONF_CLOCK_OSC32K_ENABLE_1KHZ_OUTPUT;
	osc32k_conf.enable_32khz_output = CONF_CLOCK_OSC32K_ENABLE_32KHZ_OUTPUT;
	osc32k_conf.on_demand           = CONF_CLOCK_OSC32K_ON_DEMAND;
	osc32k_conf.run_in_standby      = CONF_CLOCK_OSC32K_RUN_IN_STANDBY;

	system_clock_source_osc32k_set_config(&osc32k_conf);
    170a:	f7ff ff2b 	bl	1564 <system_clock_source_osc32k_set_config>
	system_clock_source_enable(SYSTEM_CLOCK_SOURCE_OSC32K);
    170e:	2004      	movs	r0, #4
    1710:	f7ff ff9e 	bl	1650 <system_clock_source_enable>
	config->fine_value      = 0xff / 4; /* Midpoint */
    1714:	233f      	movs	r3, #63	; 0x3f
    1716:	8163      	strh	r3, [r4, #10]
	/* DFLL Config (Open and Closed Loop) */
#if CONF_CLOCK_DFLL_ENABLE == true
	struct system_clock_source_dfll_config dfll_conf;
	system_clock_source_dfll_get_config_defaults(&dfll_conf);

	dfll_conf.loop_mode      = CONF_CLOCK_DFLL_LOOP_MODE;
    1718:	3b3b      	subs	r3, #59	; 0x3b
	config->quick_lock      = SYSTEM_CLOCK_DFLL_QUICK_LOCK_ENABLE;
    171a:	8065      	strh	r5, [r4, #2]
	config->chill_cycle     = SYSTEM_CLOCK_DFLL_CHILL_CYCLE_ENABLE;
    171c:	80a5      	strh	r5, [r4, #4]
	config->wakeup_lock     = SYSTEM_CLOCK_DFLL_WAKEUP_LOCK_KEEP;
    171e:	71a5      	strb	r5, [r4, #6]
	config->stable_tracking = SYSTEM_CLOCK_DFLL_STABLE_TRACKING_TRACK_AFTER_LOCK;
    1720:	71e5      	strb	r5, [r4, #7]
    1722:	7023      	strb	r3, [r4, #0]
	dfll_conf.on_demand      = false;
    1724:	7065      	strb	r5, [r4, #1]
	/* Using DFLL48M COARSE CAL value from NVM Software Calibration Area Mapping
	   in DFLL.COARSE helps to output a frequency close to 48 MHz.*/
#define NVM_DFLL_COARSE_POS    58 /* DFLL48M Coarse calibration value bit position.*/
#define NVM_DFLL_COARSE_SIZE   6  /* DFLL48M Coarse calibration value bit size.*/

	uint32_t coarse =( *((uint32_t *)(NVMCTRL_OTP4)
    1726:	683b      	ldr	r3, [r7, #0]
    1728:	0e9b      	lsrs	r3, r3, #26
			+ (NVM_DFLL_COARSE_POS / 32))
		>> (NVM_DFLL_COARSE_POS % 32))
		& ((1 << NVM_DFLL_COARSE_SIZE) - 1);
	/* In some revision chip, the coarse calibration value is not correct. */
	if (coarse == 0x3f) {
    172a:	2b3f      	cmp	r3, #63	; 0x3f
    172c:	d100      	bne.n	1730 <system_clock_init+0x7c>
		coarse = 0x1f;
    172e:	3b20      	subs	r3, #32
	}

	dfll_conf.coarse_value = coarse;
    1730:	7223      	strb	r3, [r4, #8]
#  else
	dfll_conf.chill_cycle = SYSTEM_CLOCK_DFLL_CHILL_CYCLE_DISABLE;
#  endif

	if (CONF_CLOCK_DFLL_LOOP_MODE == SYSTEM_CLOCK_DFLL_LOOP_MODE_CLOSED) {
		dfll_conf.multiply_factor = CONF_CLOCK_DFLL_MULTIPLY_FACTOR;
    1732:	23b7      	movs	r3, #183	; 0xb7
    1734:	00db      	lsls	r3, r3, #3
    1736:	8223      	strh	r3, [r4, #16]
	}

	dfll_conf.coarse_max_step = CONF_CLOCK_DFLL_MAX_COARSE_STEP_SIZE;
    1738:	2307      	movs	r3, #7
    173a:	7323      	strb	r3, [r4, #12]
	dfll_conf.fine_max_step   = CONF_CLOCK_DFLL_MAX_FINE_STEP_SIZE;
    173c:	233f      	movs	r3, #63	; 0x3f
	config->run_in_standby  = false;
    173e:	2500      	movs	r5, #0
	config->on_demand       = true;
    1740:	2701      	movs	r7, #1
		dfll_conf.chill_cycle = SYSTEM_CLOCK_DFLL_CHILL_CYCLE_DISABLE;

		dfll_conf.multiply_factor = 48000;
	}

	system_clock_source_dfll_set_config(&dfll_conf);
    1742:	0020      	movs	r0, r4
	dfll_conf.fine_max_step   = CONF_CLOCK_DFLL_MAX_FINE_STEP_SIZE;
    1744:	81e3      	strh	r3, [r4, #14]
	system_clock_source_dfll_set_config(&dfll_conf);
    1746:	f7ff ff45 	bl	15d4 <system_clock_source_dfll_set_config>
	config->run_in_standby  = false;
    174a:	a801      	add	r0, sp, #4
    174c:	7045      	strb	r5, [r0, #1]
	config->on_demand       = true;
    174e:	7087      	strb	r7, [r0, #2]

	/* OSC8M */
	struct system_clock_source_osc8m_config osc8m_conf;
	system_clock_source_osc8m_get_config_defaults(&osc8m_conf);

	osc8m_conf.prescaler       = CONF_CLOCK_OSC8M_PRESCALER;
    1750:	7005      	strb	r5, [r0, #0]
	osc8m_conf.on_demand       = CONF_CLOCK_OSC8M_ON_DEMAND;
	osc8m_conf.run_in_standby  = CONF_CLOCK_OSC8M_RUN_IN_STANDBY;

	system_clock_source_osc8m_set_config(&osc8m_conf);
    1752:	f7ff fee9 	bl	1528 <system_clock_source_osc8m_set_config>
	system_clock_source_enable(SYSTEM_CLOCK_SOURCE_OSC8M);
    1756:	2006      	movs	r0, #6
    1758:	f7ff ff7a 	bl	1650 <system_clock_source_enable>


	/* GCLK */
#if CONF_CLOCK_CONFIGURE_GCLK == true
	system_gclk_init();
    175c:	f000 f850 	bl	1800 <system_gclk_init>

	/* Configure all GCLK generators except for the main generator, which
	 * is configured later after all other clock systems are set up */
	MREPEAT(GCLK_GEN_NUM, _CONF_CLOCK_GCLK_CONFIG_NONMAIN, ~);
    1760:	2304      	movs	r3, #4
	config->division_factor    = 1;
    1762:	ac04      	add	r4, sp, #16
    1764:	0021      	movs	r1, r4
    1766:	0038      	movs	r0, r7
    1768:	7023      	strb	r3, [r4, #0]
    176a:	6067      	str	r7, [r4, #4]
	config->high_when_disabled = false;
    176c:	7065      	strb	r5, [r4, #1]
	config->run_in_standby     = false;
    176e:	7225      	strb	r5, [r4, #8]
	config->output_enable      = false;
    1770:	7265      	strb	r5, [r4, #9]
    1772:	f000 f855 	bl	1820 <system_gclk_gen_set_config>
    1776:	0038      	movs	r0, r7
    1778:	f000 f8a0 	bl	18bc <system_gclk_gen_enable>
    177c:	2307      	movs	r3, #7
    177e:	0021      	movs	r1, r4
    1780:	2003      	movs	r0, #3
    1782:	7023      	strb	r3, [r4, #0]
	config->division_factor    = 1;
    1784:	6067      	str	r7, [r4, #4]
	config->high_when_disabled = false;
    1786:	7065      	strb	r5, [r4, #1]
	config->run_in_standby     = false;
    1788:	7225      	strb	r5, [r4, #8]
	config->output_enable      = false;
    178a:	7265      	strb	r5, [r4, #9]
    178c:	f000 f848 	bl	1820 <system_gclk_gen_set_config>
    1790:	2003      	movs	r0, #3
    1792:	f000 f893 	bl	18bc <system_gclk_gen_enable>
	if (CONF_CLOCK_DFLL_LOOP_MODE == SYSTEM_CLOCK_DFLL_LOOP_MODE_CLOSED) {
		struct system_gclk_chan_config dfll_gclk_chan_conf;

		system_gclk_chan_get_config_defaults(&dfll_gclk_chan_conf);
		dfll_gclk_chan_conf.source_generator = CONF_CLOCK_DFLL_SOURCE_GCLK_GENERATOR;
		system_gclk_chan_set_config(SYSCTRL_GCLK_ID_DFLL48, &dfll_gclk_chan_conf);
    1796:	0021      	movs	r1, r4
    1798:	0028      	movs	r0, r5
		dfll_gclk_chan_conf.source_generator = CONF_CLOCK_DFLL_SOURCE_GCLK_GENERATOR;
    179a:	7027      	strb	r7, [r4, #0]
		system_gclk_chan_set_config(SYSCTRL_GCLK_ID_DFLL48, &dfll_gclk_chan_conf);
    179c:	f000 f91e 	bl	19dc <system_gclk_chan_set_config>
		system_gclk_chan_enable(SYSCTRL_GCLK_ID_DFLL48);
    17a0:	0028      	movs	r0, r5
    17a2:	f000 f8df 	bl	1964 <system_gclk_chan_enable>
    17a6:	f7ff fe5f 	bl	1468 <system_clock_source_enable.part.0>
	return ((SYSCTRL->PCLKSR.reg & mask) == mask);
    17aa:	22d0      	movs	r2, #208	; 0xd0
    17ac:	68f3      	ldr	r3, [r6, #12]
    17ae:	4013      	ands	r3, r2


	/* DFLL Enable (Open and Closed Loop) */
#if CONF_CLOCK_DFLL_ENABLE == true
	system_clock_source_enable(SYSTEM_CLOCK_SOURCE_DFLL);
	while(!system_clock_source_is_ready(SYSTEM_CLOCK_SOURCE_DFLL));
    17b0:	2bd0      	cmp	r3, #208	; 0xd0
    17b2:	d1fb      	bne.n	17ac <system_clock_init+0xf8>
	PM->CPUSEL.reg = (uint32_t)divider;
    17b4:	2500      	movs	r5, #0
    17b6:	4b0e      	ldr	r3, [pc, #56]	; (17f0 <system_clock_init+0x13c>)
	system_apb_clock_set_divider(SYSTEM_CLOCK_APB_APBC, CONF_CLOCK_APBC_DIVIDER);

	/* GCLK 0 */
#if CONF_CLOCK_CONFIGURE_GCLK == true
	/* Configure the main GCLK last as it might depend on other generators */
	_CONF_CLOCK_GCLK_CONFIG(0, ~);
    17b8:	0021      	movs	r1, r4
    17ba:	721d      	strb	r5, [r3, #8]
			PM->APBASEL.reg = (uint32_t)divider;
    17bc:	725d      	strb	r5, [r3, #9]
			PM->APBBSEL.reg = (uint32_t)divider;
    17be:	729d      	strb	r5, [r3, #10]
			PM->APBCSEL.reg = (uint32_t)divider;
    17c0:	72dd      	strb	r5, [r3, #11]
	config->division_factor    = 1;
    17c2:	2301      	movs	r3, #1
    17c4:	0028      	movs	r0, r5
    17c6:	6063      	str	r3, [r4, #4]
	config->source_clock       = GCLK_SOURCE_OSC8M;
    17c8:	3305      	adds	r3, #5
    17ca:	7023      	strb	r3, [r4, #0]
	config->high_when_disabled = false;
    17cc:	7065      	strb	r5, [r4, #1]
	config->run_in_standby     = false;
    17ce:	7225      	strb	r5, [r4, #8]
	config->output_enable      = false;
    17d0:	7265      	strb	r5, [r4, #9]
    17d2:	f000 f825 	bl	1820 <system_gclk_gen_set_config>
    17d6:	0028      	movs	r0, r5
    17d8:	f000 f870 	bl	18bc <system_gclk_gen_enable>
#endif
}
    17dc:	b00d      	add	sp, #52	; 0x34
    17de:	bdf0      	pop	{r4, r5, r6, r7, pc}
    17e0:	40000800 	.word	0x40000800
    17e4:	41004000 	.word	0x41004000
    17e8:	00806024 	.word	0x00806024
    17ec:	ff80ffff 	.word	0xff80ffff
    17f0:	40000400 	.word	0x40000400

000017f4 <system_gclk_is_syncing>:
 * \retval false if the module has completed synchronization
 * \retval true if the module synchronization is ongoing
 */
static inline bool system_gclk_is_syncing(void)
{
	if (GCLK->STATUS.reg & GCLK_STATUS_SYNCBUSY){
    17f4:	4b01      	ldr	r3, [pc, #4]	; (17fc <system_gclk_is_syncing+0x8>)
    17f6:	7858      	ldrb	r0, [r3, #1]
    17f8:	09c0      	lsrs	r0, r0, #7
		return true;
	}

	return false;
}
    17fa:	4770      	bx	lr
    17fc:	40000c00 	.word	0x40000c00

00001800 <system_gclk_init>:
			PM->APBAMASK.reg |= mask;
    1800:	2308      	movs	r3, #8
    1802:	4a05      	ldr	r2, [pc, #20]	; (1818 <system_gclk_init+0x18>)
    1804:	6991      	ldr	r1, [r2, #24]
    1806:	430b      	orrs	r3, r1
    1808:	6193      	str	r3, [r2, #24]
{
	/* Turn on the digital interface clock */
	system_apb_clock_set_mask(SYSTEM_CLOCK_APB_APBA, PM_APBAMASK_GCLK);

	/* Software reset the module to ensure it is re-initialized correctly */
	GCLK->CTRL.reg = GCLK_CTRL_SWRST;
    180a:	2301      	movs	r3, #1
    180c:	4a03      	ldr	r2, [pc, #12]	; (181c <system_gclk_init+0x1c>)
    180e:	7013      	strb	r3, [r2, #0]
	while (GCLK->CTRL.reg & GCLK_CTRL_SWRST) {
    1810:	7811      	ldrb	r1, [r2, #0]
    1812:	4219      	tst	r1, r3
    1814:	d1fc      	bne.n	1810 <system_gclk_init+0x10>
		/* Wait for reset to complete */
	}
}
    1816:	4770      	bx	lr
    1818:	40000400 	.word	0x40000400
    181c:	40000c00 	.word	0x40000c00

00001820 <system_gclk_gen_set_config>:
 * \param[in] config     Configuration settings for the generator
 */
void system_gclk_gen_set_config(
		const uint8_t generator,
		struct system_gclk_gen_config *const config)
{
    1820:	b570      	push	{r4, r5, r6, lr}
	/* Cache new register configurations to minimize sync requirements. */
	uint32_t new_genctrl_config = (generator << GCLK_GENCTRL_ID_Pos);
	uint32_t new_gendiv_config  = (generator << GCLK_GENDIV_ID_Pos);

	/* Select the requested source clock for the generator */
	new_genctrl_config |= config->source_clock << GCLK_GENCTRL_SRC_Pos;
    1822:	780c      	ldrb	r4, [r1, #0]

	/* Configure the clock to be either high or low when disabled */
	if (config->high_when_disabled) {
    1824:	784b      	ldrb	r3, [r1, #1]
	new_genctrl_config |= config->source_clock << GCLK_GENCTRL_SRC_Pos;
    1826:	0224      	lsls	r4, r4, #8
{
    1828:	0006      	movs	r6, r0
	uint32_t new_genctrl_config = (generator << GCLK_GENCTRL_ID_Pos);
    182a:	0005      	movs	r5, r0
	new_genctrl_config |= config->source_clock << GCLK_GENCTRL_SRC_Pos;
    182c:	4304      	orrs	r4, r0
	if (config->high_when_disabled) {
    182e:	2b00      	cmp	r3, #0
    1830:	d002      	beq.n	1838 <system_gclk_gen_set_config+0x18>
		new_genctrl_config |= GCLK_GENCTRL_OOV;
    1832:	2380      	movs	r3, #128	; 0x80
    1834:	02db      	lsls	r3, r3, #11
    1836:	431c      	orrs	r4, r3
	}

	/* Configure if the clock output to I/O pin should be enabled. */
	if (config->output_enable) {
    1838:	7a4b      	ldrb	r3, [r1, #9]
    183a:	2b00      	cmp	r3, #0
    183c:	d002      	beq.n	1844 <system_gclk_gen_set_config+0x24>
		new_genctrl_config |= GCLK_GENCTRL_OE;
    183e:	2380      	movs	r3, #128	; 0x80
    1840:	031b      	lsls	r3, r3, #12
    1842:	431c      	orrs	r4, r3
	}

	/* Set division factor */
	if (config->division_factor > 1) {
    1844:	684b      	ldr	r3, [r1, #4]
    1846:	2b01      	cmp	r3, #1
    1848:	d912      	bls.n	1870 <system_gclk_gen_set_config+0x50>
		/* Check if division is a power of two */
		if (((config->division_factor & (config->division_factor - 1)) == 0)) {
    184a:	1e5d      	subs	r5, r3, #1
    184c:	401d      	ands	r5, r3
    184e:	2202      	movs	r2, #2
    1850:	2d00      	cmp	r5, #0
    1852:	d006      	beq.n	1862 <system_gclk_gen_set_config+0x42>
			new_genctrl_config |= GCLK_GENCTRL_DIVSEL;
		} else {
			/* Set integer division factor */

			new_gendiv_config  |=
					(config->division_factor) << GCLK_GENDIV_DIV_Pos;
    1854:	021d      	lsls	r5, r3, #8

			/* Enable non-binary division with increased duty cycle accuracy */
			new_genctrl_config |= GCLK_GENCTRL_IDC;
    1856:	2380      	movs	r3, #128	; 0x80
			new_gendiv_config  |=
    1858:	4335      	orrs	r5, r6
			new_genctrl_config |= GCLK_GENCTRL_IDC;
    185a:	029b      	lsls	r3, r3, #10
    185c:	e007      	b.n	186e <system_gclk_gen_set_config+0x4e>
				div2_count++;
    185e:	3501      	adds	r5, #1
						mask <<= 1) {
    1860:	0052      	lsls	r2, r2, #1
			for (mask = (1UL << 1); mask < config->division_factor;
    1862:	429a      	cmp	r2, r3
    1864:	d3fb      	bcc.n	185e <system_gclk_gen_set_config+0x3e>
			new_genctrl_config |= GCLK_GENCTRL_DIVSEL;
    1866:	2380      	movs	r3, #128	; 0x80
			new_gendiv_config  |= div2_count << GCLK_GENDIV_DIV_Pos;
    1868:	022d      	lsls	r5, r5, #8
    186a:	4335      	orrs	r5, r6
			new_genctrl_config |= GCLK_GENCTRL_DIVSEL;
    186c:	035b      	lsls	r3, r3, #13
			new_genctrl_config |= GCLK_GENCTRL_IDC;
    186e:	431c      	orrs	r4, r3
		}

	}

	/* Enable or disable the clock in standby mode */
	if (config->run_in_standby) {
    1870:	7a0b      	ldrb	r3, [r1, #8]
    1872:	2b00      	cmp	r3, #0
    1874:	d002      	beq.n	187c <system_gclk_gen_set_config+0x5c>
		new_genctrl_config |= GCLK_GENCTRL_RUNSTDBY;
    1876:	2380      	movs	r3, #128	; 0x80
    1878:	039b      	lsls	r3, r3, #14
    187a:	431c      	orrs	r4, r3
	}

	while (system_gclk_is_syncing()) {
    187c:	f7ff ffba 	bl	17f4 <system_gclk_is_syncing>
    1880:	2800      	cmp	r0, #0
    1882:	d1fb      	bne.n	187c <system_gclk_gen_set_config+0x5c>
	cpu_irq_enter_critical();
    1884:	f7ff fa44 	bl	d10 <cpu_irq_enter_critical>
	};

	system_interrupt_enter_critical_section();

	/* Select the correct generator */
	*((uint8_t*)&GCLK->GENDIV.reg) = generator;
    1888:	4b0a      	ldr	r3, [pc, #40]	; (18b4 <system_gclk_gen_set_config+0x94>)
    188a:	701e      	strb	r6, [r3, #0]

	/* Write the new generator configuration */
	while (system_gclk_is_syncing()) {
    188c:	f7ff ffb2 	bl	17f4 <system_gclk_is_syncing>
    1890:	2800      	cmp	r0, #0
    1892:	d1fb      	bne.n	188c <system_gclk_gen_set_config+0x6c>
		/* Wait for synchronization */
	};
	GCLK->GENDIV.reg  = new_gendiv_config;
    1894:	4b08      	ldr	r3, [pc, #32]	; (18b8 <system_gclk_gen_set_config+0x98>)
    1896:	609d      	str	r5, [r3, #8]
    1898:	001d      	movs	r5, r3

	while (system_gclk_is_syncing()) {
    189a:	f7ff ffab 	bl	17f4 <system_gclk_is_syncing>
    189e:	2800      	cmp	r0, #0
    18a0:	d1fb      	bne.n	189a <system_gclk_gen_set_config+0x7a>
		/* Wait for synchronization */
	};
	GCLK->GENCTRL.reg = new_genctrl_config | (GCLK->GENCTRL.reg & GCLK_GENCTRL_GENEN);
    18a2:	2280      	movs	r2, #128	; 0x80
    18a4:	686b      	ldr	r3, [r5, #4]
    18a6:	0252      	lsls	r2, r2, #9
    18a8:	4013      	ands	r3, r2
    18aa:	431c      	orrs	r4, r3
    18ac:	606c      	str	r4, [r5, #4]
	cpu_irq_leave_critical();
    18ae:	f7ff fa49 	bl	d44 <cpu_irq_leave_critical>

	system_interrupt_leave_critical_section();
}
    18b2:	bd70      	pop	{r4, r5, r6, pc}
    18b4:	40000c08 	.word	0x40000c08
    18b8:	40000c00 	.word	0x40000c00

000018bc <system_gclk_gen_enable>:
 *
 * \param[in] generator  Generic Clock Generator index to enable
 */
void system_gclk_gen_enable(
		const uint8_t generator)
{
    18bc:	b510      	push	{r4, lr}
    18be:	0004      	movs	r4, r0
	while (system_gclk_is_syncing()) {
    18c0:	f7ff ff98 	bl	17f4 <system_gclk_is_syncing>
    18c4:	2800      	cmp	r0, #0
    18c6:	d1fb      	bne.n	18c0 <system_gclk_gen_enable+0x4>
	cpu_irq_enter_critical();
    18c8:	f7ff fa22 	bl	d10 <cpu_irq_enter_critical>
	};

	system_interrupt_enter_critical_section();

	/* Select the requested generator */
	*((uint8_t*)&GCLK->GENCTRL.reg) = generator;
    18cc:	4b07      	ldr	r3, [pc, #28]	; (18ec <system_gclk_gen_enable+0x30>)
    18ce:	701c      	strb	r4, [r3, #0]
	while (system_gclk_is_syncing()) {
    18d0:	f7ff ff90 	bl	17f4 <system_gclk_is_syncing>
    18d4:	2800      	cmp	r0, #0
    18d6:	d1fb      	bne.n	18d0 <system_gclk_gen_enable+0x14>
		/* Wait for synchronization */
	};

	/* Enable generator */
	GCLK->GENCTRL.reg |= GCLK_GENCTRL_GENEN;
    18d8:	2380      	movs	r3, #128	; 0x80
    18da:	4a05      	ldr	r2, [pc, #20]	; (18f0 <system_gclk_gen_enable+0x34>)
    18dc:	025b      	lsls	r3, r3, #9
    18de:	6851      	ldr	r1, [r2, #4]
    18e0:	430b      	orrs	r3, r1
    18e2:	6053      	str	r3, [r2, #4]
	cpu_irq_leave_critical();
    18e4:	f7ff fa2e 	bl	d44 <cpu_irq_leave_critical>

	system_interrupt_leave_critical_section();
}
    18e8:	bd10      	pop	{r4, pc}
    18ea:	46c0      	nop			; (mov r8, r8)
    18ec:	40000c04 	.word	0x40000c04
    18f0:	40000c00 	.word	0x40000c00

000018f4 <system_gclk_gen_get_hz>:
 *
 * \return The frequency of the generic clock generator, in Hz.
 */
uint32_t system_gclk_gen_get_hz(
		const uint8_t generator)
{
    18f4:	b5f8      	push	{r3, r4, r5, r6, r7, lr}
    18f6:	0007      	movs	r7, r0
	while (system_gclk_is_syncing()) {
    18f8:	f7ff ff7c 	bl	17f4 <system_gclk_is_syncing>
    18fc:	2800      	cmp	r0, #0
    18fe:	d1fb      	bne.n	18f8 <system_gclk_gen_get_hz+0x4>
	};

	system_interrupt_enter_critical_section();

	/* Select the appropriate generator */
	*((uint8_t*)&GCLK->GENCTRL.reg) = generator;
    1900:	4e15      	ldr	r6, [pc, #84]	; (1958 <system_gclk_gen_get_hz+0x64>)
	cpu_irq_enter_critical();
    1902:	f7ff fa05 	bl	d10 <cpu_irq_enter_critical>
    1906:	7037      	strb	r7, [r6, #0]
	while (system_gclk_is_syncing()) {
    1908:	f7ff ff74 	bl	17f4 <system_gclk_is_syncing>
    190c:	2800      	cmp	r0, #0
    190e:	d1fb      	bne.n	1908 <system_gclk_gen_get_hz+0x14>
		/* Wait for synchronization */
	};

	/* Get the frequency of the source connected to the GCLK generator */
	uint32_t gen_input_hz = system_clock_source_get_hz(
			(enum system_clock_source)GCLK->GENCTRL.bit.SRC);
    1910:	4c12      	ldr	r4, [pc, #72]	; (195c <system_gclk_gen_get_hz+0x68>)
    1912:	6860      	ldr	r0, [r4, #4]
    1914:	04c0      	lsls	r0, r0, #19
    1916:	0ec0      	lsrs	r0, r0, #27
	uint32_t gen_input_hz = system_clock_source_get_hz(
    1918:	f7ff fdc2 	bl	14a0 <system_clock_source_get_hz>
    191c:	0005      	movs	r5, r0

	*((uint8_t*)&GCLK->GENCTRL.reg) = generator;
    191e:	7037      	strb	r7, [r6, #0]

	uint8_t divsel = GCLK->GENCTRL.bit.DIVSEL;
    1920:	6866      	ldr	r6, [r4, #4]

	/* Select the appropriate generator division register */
	*((uint8_t*)&GCLK->GENDIV.reg) = generator;
    1922:	4b0f      	ldr	r3, [pc, #60]	; (1960 <system_gclk_gen_get_hz+0x6c>)
	uint8_t divsel = GCLK->GENCTRL.bit.DIVSEL;
    1924:	02f6      	lsls	r6, r6, #11
    1926:	0ff6      	lsrs	r6, r6, #31
	*((uint8_t*)&GCLK->GENDIV.reg) = generator;
    1928:	701f      	strb	r7, [r3, #0]
	while (system_gclk_is_syncing()) {
    192a:	f7ff ff63 	bl	17f4 <system_gclk_is_syncing>
    192e:	2800      	cmp	r0, #0
    1930:	d1fb      	bne.n	192a <system_gclk_gen_get_hz+0x36>
		/* Wait for synchronization */
	};

	uint32_t divider = GCLK->GENDIV.bit.DIV;
    1932:	68a4      	ldr	r4, [r4, #8]
    1934:	0224      	lsls	r4, r4, #8
    1936:	0c24      	lsrs	r4, r4, #16
	cpu_irq_leave_critical();
    1938:	f7ff fa04 	bl	d44 <cpu_irq_leave_critical>

	system_interrupt_leave_critical_section();

	/* Check if the generator is using fractional or binary division */
	if (!divsel && divider > 1) {
    193c:	2e00      	cmp	r6, #0
    193e:	d108      	bne.n	1952 <system_gclk_gen_get_hz+0x5e>
    1940:	2c01      	cmp	r4, #1
    1942:	d904      	bls.n	194e <system_gclk_gen_get_hz+0x5a>
		gen_input_hz /= divider;
    1944:	0028      	movs	r0, r5
    1946:	0021      	movs	r1, r4
    1948:	f000 fcf6 	bl	2338 <__udivsi3>
    194c:	0005      	movs	r5, r0
	} else if (divsel) {
		gen_input_hz >>= (divider+1);
	}

	return gen_input_hz;
}
    194e:	0028      	movs	r0, r5
    1950:	bdf8      	pop	{r3, r4, r5, r6, r7, pc}
		gen_input_hz >>= (divider+1);
    1952:	3401      	adds	r4, #1
    1954:	40e5      	lsrs	r5, r4
	return gen_input_hz;
    1956:	e7fa      	b.n	194e <system_gclk_gen_get_hz+0x5a>
    1958:	40000c04 	.word	0x40000c04
    195c:	40000c00 	.word	0x40000c00
    1960:	40000c08 	.word	0x40000c08

00001964 <system_gclk_chan_enable>:
 *
 * \param[in] channel   Generic Clock channel to enable
 */
void system_gclk_chan_enable(
		const uint8_t channel)
{
    1964:	b510      	push	{r4, lr}
    1966:	0004      	movs	r4, r0
	cpu_irq_enter_critical();
    1968:	f7ff f9d2 	bl	d10 <cpu_irq_enter_critical>
	system_interrupt_enter_critical_section();

	/* Select the requested generator channel */
	*((uint8_t*)&GCLK->CLKCTRL.reg) = channel;
    196c:	4b05      	ldr	r3, [pc, #20]	; (1984 <system_gclk_chan_enable+0x20>)

	/* Enable the generic clock */
	GCLK->CLKCTRL.reg |= GCLK_CLKCTRL_CLKEN;
    196e:	4a06      	ldr	r2, [pc, #24]	; (1988 <system_gclk_chan_enable+0x24>)
	*((uint8_t*)&GCLK->CLKCTRL.reg) = channel;
    1970:	701c      	strb	r4, [r3, #0]
	GCLK->CLKCTRL.reg |= GCLK_CLKCTRL_CLKEN;
    1972:	2380      	movs	r3, #128	; 0x80
    1974:	8851      	ldrh	r1, [r2, #2]
    1976:	01db      	lsls	r3, r3, #7
    1978:	430b      	orrs	r3, r1
    197a:	8053      	strh	r3, [r2, #2]
	cpu_irq_leave_critical();
    197c:	f7ff f9e2 	bl	d44 <cpu_irq_leave_critical>

	system_interrupt_leave_critical_section();
}
    1980:	bd10      	pop	{r4, pc}
    1982:	46c0      	nop			; (mov r8, r8)
    1984:	40000c02 	.word	0x40000c02
    1988:	40000c00 	.word	0x40000c00

0000198c <system_gclk_chan_disable>:
 *
 * \param[in] channel  Generic Clock channel to disable
 */
void system_gclk_chan_disable(
		const uint8_t channel)
{
    198c:	b510      	push	{r4, lr}
    198e:	0004      	movs	r4, r0
	cpu_irq_enter_critical();
    1990:	f7ff f9be 	bl	d10 <cpu_irq_enter_critical>
	system_interrupt_enter_critical_section();

	/* Select the requested generator channel */
	*((uint8_t*)&GCLK->CLKCTRL.reg) = channel;
    1994:	4b0d      	ldr	r3, [pc, #52]	; (19cc <system_gclk_chan_disable+0x40>)
	/* Sanity check WRTLOCK */
	Assert(!GCLK->CLKCTRL.bit.WRTLOCK);

	/* Switch to known-working source so that the channel can be disabled */
	uint32_t prev_gen_id = GCLK->CLKCTRL.bit.GEN;
	GCLK->CLKCTRL.bit.GEN = 0;
    1996:	4a0e      	ldr	r2, [pc, #56]	; (19d0 <system_gclk_chan_disable+0x44>)
	*((uint8_t*)&GCLK->CLKCTRL.reg) = channel;
    1998:	701c      	strb	r4, [r3, #0]
	uint32_t prev_gen_id = GCLK->CLKCTRL.bit.GEN;
    199a:	4b0e      	ldr	r3, [pc, #56]	; (19d4 <system_gclk_chan_disable+0x48>)

	/* Disable the generic clock */
	GCLK->CLKCTRL.reg &= ~GCLK_CLKCTRL_CLKEN;
    199c:	4c0e      	ldr	r4, [pc, #56]	; (19d8 <system_gclk_chan_disable+0x4c>)
	uint32_t prev_gen_id = GCLK->CLKCTRL.bit.GEN;
    199e:	8858      	ldrh	r0, [r3, #2]
	GCLK->CLKCTRL.bit.GEN = 0;
    19a0:	8859      	ldrh	r1, [r3, #2]
	uint32_t prev_gen_id = GCLK->CLKCTRL.bit.GEN;
    19a2:	0500      	lsls	r0, r0, #20
	GCLK->CLKCTRL.bit.GEN = 0;
    19a4:	4011      	ands	r1, r2
    19a6:	8059      	strh	r1, [r3, #2]
	GCLK->CLKCTRL.reg &= ~GCLK_CLKCTRL_CLKEN;
    19a8:	8859      	ldrh	r1, [r3, #2]
	uint32_t prev_gen_id = GCLK->CLKCTRL.bit.GEN;
    19aa:	0f00      	lsrs	r0, r0, #28
	GCLK->CLKCTRL.reg &= ~GCLK_CLKCTRL_CLKEN;
    19ac:	4021      	ands	r1, r4
    19ae:	8059      	strh	r1, [r3, #2]
    19b0:	0011      	movs	r1, r2
	while (GCLK->CLKCTRL.reg & GCLK_CLKCTRL_CLKEN) {
    19b2:	2280      	movs	r2, #128	; 0x80
    19b4:	01d2      	lsls	r2, r2, #7
    19b6:	885c      	ldrh	r4, [r3, #2]
    19b8:	4214      	tst	r4, r2
    19ba:	d1fc      	bne.n	19b6 <system_gclk_chan_disable+0x2a>
		/* Wait for clock to become disabled */
	}

	/* Restore previous configured clock generator */
	GCLK->CLKCTRL.bit.GEN = prev_gen_id;
    19bc:	885a      	ldrh	r2, [r3, #2]
    19be:	0200      	lsls	r0, r0, #8
    19c0:	400a      	ands	r2, r1
    19c2:	4302      	orrs	r2, r0
    19c4:	805a      	strh	r2, [r3, #2]
	cpu_irq_leave_critical();
    19c6:	f7ff f9bd 	bl	d44 <cpu_irq_leave_critical>

	system_interrupt_leave_critical_section();
}
    19ca:	bd10      	pop	{r4, pc}
    19cc:	40000c02 	.word	0x40000c02
    19d0:	fffff0ff 	.word	0xfffff0ff
    19d4:	40000c00 	.word	0x40000c00
    19d8:	ffffbfff 	.word	0xffffbfff

000019dc <system_gclk_chan_set_config>:
{
    19dc:	b510      	push	{r4, lr}
	new_clkctrl_config |= config->source_generator << GCLK_CLKCTRL_GEN_Pos;
    19de:	780c      	ldrb	r4, [r1, #0]
    19e0:	0224      	lsls	r4, r4, #8
    19e2:	4304      	orrs	r4, r0
	system_gclk_chan_disable(channel);
    19e4:	f7ff ffd2 	bl	198c <system_gclk_chan_disable>
	GCLK->CLKCTRL.reg = new_clkctrl_config;
    19e8:	4b01      	ldr	r3, [pc, #4]	; (19f0 <system_gclk_chan_set_config+0x14>)
    19ea:	b2a4      	uxth	r4, r4
    19ec:	805c      	strh	r4, [r3, #2]
}
    19ee:	bd10      	pop	{r4, pc}
    19f0:	40000c00 	.word	0x40000c00

000019f4 <system_gclk_chan_get_hz>:
 *
 * \return The frequency of the generic clock channel, in Hz.
 */
uint32_t system_gclk_chan_get_hz(
		const uint8_t channel)
{
    19f4:	b510      	push	{r4, lr}
    19f6:	0004      	movs	r4, r0
	cpu_irq_enter_critical();
    19f8:	f7ff f98a 	bl	d10 <cpu_irq_enter_critical>
	uint8_t gen_id;

	system_interrupt_enter_critical_section();

	/* Select the requested generic clock channel */
	*((uint8_t*)&GCLK->CLKCTRL.reg) = channel;
    19fc:	4b05      	ldr	r3, [pc, #20]	; (1a14 <system_gclk_chan_get_hz+0x20>)
    19fe:	701c      	strb	r4, [r3, #0]
	gen_id = GCLK->CLKCTRL.bit.GEN;
    1a00:	4b05      	ldr	r3, [pc, #20]	; (1a18 <system_gclk_chan_get_hz+0x24>)
    1a02:	885c      	ldrh	r4, [r3, #2]
	cpu_irq_leave_critical();
    1a04:	f7ff f99e 	bl	d44 <cpu_irq_leave_critical>
    1a08:	0524      	lsls	r4, r4, #20
    1a0a:	0f24      	lsrs	r4, r4, #28

	system_interrupt_leave_critical_section();

	/* Return the clock speed of the associated GCLK generator */
	return system_gclk_gen_get_hz(gen_id);
    1a0c:	0020      	movs	r0, r4
    1a0e:	f7ff ff71 	bl	18f4 <system_gclk_gen_get_hz>
}
    1a12:	bd10      	pop	{r4, pc}
    1a14:	40000c02 	.word	0x40000c02
    1a18:	40000c00 	.word	0x40000c00

00001a1c <_system_pinmux_config>:

	/* Track the configuration bits into a temporary variable before writing */
	uint32_t pin_cfg = 0;

	/* Enabled powersave mode, don't create configuration */
	if (!config->powersave) {
    1a1c:	78d3      	ldrb	r3, [r2, #3]
{
    1a1e:	b530      	push	{r4, r5, lr}
	if (!config->powersave) {
    1a20:	2b00      	cmp	r3, #0
    1a22:	d135      	bne.n	1a90 <_system_pinmux_config+0x74>
		/* Enable the pin peripheral MUX flag if non-GPIO selected (pinmux will
		 * be written later) and store the new MUX mask */
		if (config->mux_position != SYSTEM_PINMUX_GPIO) {
    1a24:	7814      	ldrb	r4, [r2, #0]
    1a26:	2c80      	cmp	r4, #128	; 0x80
    1a28:	d003      	beq.n	1a32 <_system_pinmux_config+0x16>
			pin_cfg |= PORT_WRCONFIG_PMUXEN;
			pin_cfg |= (config->mux_position << PORT_WRCONFIG_PMUX_Pos);
    1a2a:	2380      	movs	r3, #128	; 0x80
    1a2c:	0624      	lsls	r4, r4, #24
    1a2e:	025b      	lsls	r3, r3, #9
    1a30:	4323      	orrs	r3, r4
		}

		/* Check if the user has requested that the input buffer be enabled */
		if ((config->direction == SYSTEM_PINMUX_PIN_DIR_INPUT) ||
    1a32:	2502      	movs	r5, #2
    1a34:	7854      	ldrb	r4, [r2, #1]
    1a36:	43ac      	bics	r4, r5
    1a38:	d106      	bne.n	1a48 <_system_pinmux_config+0x2c>
				(config->direction == SYSTEM_PINMUX_PIN_DIR_OUTPUT_WITH_READBACK)) {
			/* Enable input buffer flag */
			pin_cfg |= PORT_WRCONFIG_INEN;

			/* Enable pull-up/pull-down control flag if requested */
			if (config->input_pull != SYSTEM_PINMUX_PIN_PULL_NONE) {
    1a3a:	7894      	ldrb	r4, [r2, #2]
    1a3c:	2c00      	cmp	r4, #0
    1a3e:	d124      	bne.n	1a8a <_system_pinmux_config+0x6e>
			pin_cfg |= PORT_WRCONFIG_INEN;
    1a40:	2480      	movs	r4, #128	; 0x80
    1a42:	02a4      	lsls	r4, r4, #10
				pin_cfg |= PORT_WRCONFIG_PULLEN;
    1a44:	4323      	orrs	r3, r4
			}

			/* Clear the port DIR bits to disable the output buffer */
			port->DIRCLR.reg = pin_mask;
    1a46:	6041      	str	r1, [r0, #4]
		}

		/* Check if the user has requested that the output buffer be enabled */
		if ((config->direction == SYSTEM_PINMUX_PIN_DIR_OUTPUT) ||
    1a48:	7854      	ldrb	r4, [r2, #1]
    1a4a:	3c01      	subs	r4, #1
    1a4c:	2c01      	cmp	r4, #1
    1a4e:	d801      	bhi.n	1a54 <_system_pinmux_config+0x38>
				(config->direction == SYSTEM_PINMUX_PIN_DIR_OUTPUT_WITH_READBACK)) {
			/* Cannot use a pull-up if the output driver is enabled,
			 * if requested the input buffer can only sample the current
			 * output state */
			pin_cfg &= ~PORT_WRCONFIG_PULLEN;
    1a50:	4c12      	ldr	r4, [pc, #72]	; (1a9c <_system_pinmux_config+0x80>)
    1a52:	4023      	ands	r3, r4

	/* Configure the lower 16-bits of the port to the desired configuration,
	 * including the pin peripheral multiplexer just in case it is enabled */
	port->WRCONFIG.reg
		= (lower_pin_mask << PORT_WRCONFIG_PINMASK_Pos) |
			pin_cfg | PORT_WRCONFIG_WRPMUX | PORT_WRCONFIG_WRPINCFG;
    1a54:	24a0      	movs	r4, #160	; 0xa0
	uint32_t lower_pin_mask = (pin_mask & 0xFFFF);
    1a56:	b28d      	uxth	r5, r1
			pin_cfg | PORT_WRCONFIG_WRPMUX | PORT_WRCONFIG_WRPINCFG;
    1a58:	05e4      	lsls	r4, r4, #23
    1a5a:	432c      	orrs	r4, r5
    1a5c:	431c      	orrs	r4, r3
		= (lower_pin_mask << PORT_WRCONFIG_PINMASK_Pos) |
    1a5e:	6284      	str	r4, [r0, #40]	; 0x28

	/* Configure the upper 16-bits of the port to the desired configuration,
	 * including the pin peripheral multiplexer just in case it is enabled */
	port->WRCONFIG.reg
		= (upper_pin_mask << PORT_WRCONFIG_PINMASK_Pos) |
			pin_cfg | PORT_WRCONFIG_WRPMUX | PORT_WRCONFIG_WRPINCFG |
    1a60:	24d0      	movs	r4, #208	; 0xd0
	uint32_t upper_pin_mask = (pin_mask >> 16);
    1a62:	0c0d      	lsrs	r5, r1, #16
			pin_cfg | PORT_WRCONFIG_WRPMUX | PORT_WRCONFIG_WRPINCFG |
    1a64:	0624      	lsls	r4, r4, #24
    1a66:	432c      	orrs	r4, r5
    1a68:	431c      	orrs	r4, r3
		= (upper_pin_mask << PORT_WRCONFIG_PINMASK_Pos) |
    1a6a:	6284      	str	r4, [r0, #40]	; 0x28
			PORT_WRCONFIG_HWSEL;

	if(!config->powersave) {
    1a6c:	78d4      	ldrb	r4, [r2, #3]
    1a6e:	2c00      	cmp	r4, #0
    1a70:	d10a      	bne.n	1a88 <_system_pinmux_config+0x6c>
		/* Set the pull-up state once the port pins are configured if one was
		 * requested and it does not violate the valid set of port
		 * configurations */
		if (pin_cfg & PORT_WRCONFIG_PULLEN) {
    1a72:	035b      	lsls	r3, r3, #13
    1a74:	d503      	bpl.n	1a7e <_system_pinmux_config+0x62>
			/* Set the OUT register bits to enable the pull-up if requested,
			 * clear to enable pull-down */
			if (config->input_pull == SYSTEM_PINMUX_PIN_PULL_UP) {
    1a76:	7893      	ldrb	r3, [r2, #2]
    1a78:	2b01      	cmp	r3, #1
    1a7a:	d10c      	bne.n	1a96 <_system_pinmux_config+0x7a>
				port->OUTSET.reg = pin_mask;
    1a7c:	6181      	str	r1, [r0, #24]
				port->OUTCLR.reg = pin_mask;
			}
		}

		/* Check if the user has requested that the output buffer be enabled */
		if ((config->direction == SYSTEM_PINMUX_PIN_DIR_OUTPUT) ||
    1a7e:	7853      	ldrb	r3, [r2, #1]
    1a80:	3b01      	subs	r3, #1
    1a82:	2b01      	cmp	r3, #1
    1a84:	d800      	bhi.n	1a88 <_system_pinmux_config+0x6c>
				(config->direction == SYSTEM_PINMUX_PIN_DIR_OUTPUT_WITH_READBACK)) {
			/* Set the port DIR bits to enable the output buffer */
			port->DIRSET.reg = pin_mask;
    1a86:	6081      	str	r1, [r0, #8]
		}
	}
}
    1a88:	bd30      	pop	{r4, r5, pc}
				pin_cfg |= PORT_WRCONFIG_PULLEN;
    1a8a:	24c0      	movs	r4, #192	; 0xc0
    1a8c:	02e4      	lsls	r4, r4, #11
    1a8e:	e7d9      	b.n	1a44 <_system_pinmux_config+0x28>
		port->DIRCLR.reg = pin_mask;
    1a90:	6041      	str	r1, [r0, #4]
	uint32_t pin_cfg = 0;
    1a92:	2300      	movs	r3, #0
    1a94:	e7de      	b.n	1a54 <_system_pinmux_config+0x38>
				port->OUTCLR.reg = pin_mask;
    1a96:	6141      	str	r1, [r0, #20]
    1a98:	e7f1      	b.n	1a7e <_system_pinmux_config+0x62>
    1a9a:	46c0      	nop			; (mov r8, r8)
    1a9c:	fffbffff 	.word	0xfffbffff

00001aa0 <system_pinmux_pin_set_config>:
 * \param[in] config    Configuration settings for the pin
 */
void system_pinmux_pin_set_config(
		const uint8_t gpio_pin,
		const struct system_pinmux_config *const config)
{
    1aa0:	b510      	push	{r4, lr}
    1aa2:	0003      	movs	r3, r0
    1aa4:	000a      	movs	r2, r1
 */
static inline PortGroup* system_pinmux_get_group_from_gpio_pin(
		const uint8_t gpio_pin)
{
	uint8_t port_index  = (gpio_pin / 128);
	uint8_t group_index = (gpio_pin / 32);
    1aa6:	0944      	lsrs	r4, r0, #5

	/* Array of available ports */
	Port *const ports[PORT_INST_NUM] = PORT_INSTS;

	if (port_index < PORT_INST_NUM) {
    1aa8:	09c1      	lsrs	r1, r0, #7
		return &(ports[port_index]->Group[group_index]);
	} else {
		Assert(false);
		return NULL;
    1aaa:	2000      	movs	r0, #0
	if (port_index < PORT_INST_NUM) {
    1aac:	4281      	cmp	r1, r0
    1aae:	d102      	bne.n	1ab6 <system_pinmux_pin_set_config+0x16>
		return &(ports[port_index]->Group[group_index]);
    1ab0:	4904      	ldr	r1, [pc, #16]	; (1ac4 <system_pinmux_pin_set_config+0x24>)
    1ab2:	01e0      	lsls	r0, r4, #7
    1ab4:	1840      	adds	r0, r0, r1
	PortGroup *const port = system_pinmux_get_group_from_gpio_pin(gpio_pin);
	uint32_t pin_mask = (1UL << (gpio_pin % 32));
    1ab6:	211f      	movs	r1, #31
    1ab8:	400b      	ands	r3, r1
    1aba:	391e      	subs	r1, #30
    1abc:	4099      	lsls	r1, r3

	_system_pinmux_config(port, pin_mask, config);
    1abe:	f7ff ffad 	bl	1a1c <_system_pinmux_config>
}
    1ac2:	bd10      	pop	{r4, pc}
    1ac4:	41004400 	.word	0x41004400

00001ac8 <_system_dummy_init>:
 */
void _system_dummy_init(void);
void _system_dummy_init(void)
{
	return;
}
    1ac8:	4770      	bx	lr

00001aca <system_init>:
 *  - Board hardware initialization (via the Board module)
 *  - Event system driver initialization (via the EVSYS module)
 *  - External Interrupt driver initialization (via the EXTINT module)
 */
void system_init(void)
{
    1aca:	b510      	push	{r4, lr}
	/* Configure GCLK and clock sources according to conf_clocks.h */
	system_clock_init();
    1acc:	f7ff fdf2 	bl	16b4 <system_clock_init>
	//system_board_init();
	

	
	/* Initialize EVSYS hardware */
	_system_events_init();
    1ad0:	f7ff fffa 	bl	1ac8 <_system_dummy_init>

	/* Initialize External hardware */
	_system_extint_init();
    1ad4:	f7fe fd40 	bl	558 <_system_extint_init>
	
	/* Initialize DIVAS hardware */
	_system_divas_init();
    1ad8:	f7ff fff6 	bl	1ac8 <_system_dummy_init>
}
    1adc:	bd10      	pop	{r4, pc}
	...

00001ae0 <_tcc_set_compare_value.isra.5>:
 *
 * \retval  STATUS_OK               The compare value was updated successfully
 * \retval  STATUS_ERR_INVALID_ARG  An invalid channel index was supplied or
 *                                  compare value exceed resolution
 */
static enum status_code _tcc_set_compare_value(
    1ae0:	b530      	push	{r4, r5, lr}
    1ae2:	0004      	movs	r4, r0
	/* Get a index of the module */
	uint8_t module_index = _tcc_get_inst_index(tcc_module);

	/* Check index */
	if (channel_index >= _tcc_cc_nums[module_index]) {
		return STATUS_ERR_INVALID_ARG;
    1ae4:	2017      	movs	r0, #23
	if (channel_index >= _tcc_cc_nums[module_index]) {
    1ae6:	2903      	cmp	r1, #3
    1ae8:	d813      	bhi.n	1b12 <_tcc_set_compare_value.isra.5+0x32>
	}

	uint32_t max_count = _tcc_maxs[module_index];

	/* Check compare value */
	if (compare > max_count) {
    1aea:	4d10      	ldr	r5, [pc, #64]	; (1b2c <_tcc_set_compare_value.isra.5+0x4c>)
    1aec:	42aa      	cmp	r2, r5
    1aee:	d810      	bhi.n	1b12 <_tcc_set_compare_value.isra.5+0x32>
		return STATUS_ERR_INVALID_ARG;
	}

	if (double_buffering_enabled) {
    1af0:	2b00      	cmp	r3, #0
    1af2:	d00f      	beq.n	1b14 <_tcc_set_compare_value.isra.5+0x34>
#if (SAML21) || (SAMC20) || (SAMC21) || (SAML22) || (SAMR30) || (SAMR34) || (SAMR35) || (WLR089)
		tcc_module->CCBUF[channel_index].reg = compare;
#else
		while(tcc_module->STATUS.reg  &
				(TCC_STATUS_CCBV0 << channel_index)) {
    1af4:	2380      	movs	r3, #128	; 0x80
    1af6:	025b      	lsls	r3, r3, #9
    1af8:	408b      	lsls	r3, r1
		while(tcc_module->STATUS.reg  &
    1afa:	6b20      	ldr	r0, [r4, #48]	; 0x30
    1afc:	4203      	tst	r3, r0
    1afe:	d1fc      	bne.n	1afa <_tcc_set_compare_value.isra.5+0x1a>
			/* Valid check */
		}
		while(tcc_module->SYNCBUSY.reg  &
				(TCC_SYNCBUSY_CCB0 << channel_index)) {
    1b00:	2580      	movs	r5, #128	; 0x80
    1b02:	032d      	lsls	r5, r5, #12
    1b04:	408d      	lsls	r5, r1
		while(tcc_module->SYNCBUSY.reg  &
    1b06:	68a0      	ldr	r0, [r4, #8]
    1b08:	4028      	ands	r0, r5
    1b0a:	d1fc      	bne.n	1b06 <_tcc_set_compare_value.isra.5+0x26>
			/* Sync wait */
		}
		tcc_module->CCB[channel_index].reg = compare;
    1b0c:	311c      	adds	r1, #28
    1b0e:	0089      	lsls	r1, r1, #2
    1b10:	510a      	str	r2, [r1, r4]
			/* Sync wait */
		}
		tcc_module->CC[channel_index].reg = compare;
	}
	return STATUS_OK;
}
    1b12:	bd30      	pop	{r4, r5, pc}
		while(tcc_module->SYNCBUSY.reg  & (TCC_SYNCBUSY_CC0 << channel_index)) {
    1b14:	2080      	movs	r0, #128	; 0x80
    1b16:	0040      	lsls	r0, r0, #1
    1b18:	4088      	lsls	r0, r1
    1b1a:	68a3      	ldr	r3, [r4, #8]
    1b1c:	4003      	ands	r3, r0
    1b1e:	d1fc      	bne.n	1b1a <_tcc_set_compare_value.isra.5+0x3a>
		tcc_module->CC[channel_index].reg = compare;
    1b20:	3110      	adds	r1, #16
    1b22:	0089      	lsls	r1, r1, #2
    1b24:	1861      	adds	r1, r4, r1
    1b26:	604a      	str	r2, [r1, #4]
	return STATUS_OK;
    1b28:	0018      	movs	r0, r3
    1b2a:	e7f2      	b.n	1b12 <_tcc_set_compare_value.isra.5+0x32>
    1b2c:	00ffffff 	.word	0x00ffffff

00001b30 <tcc_set_compare_value>:
		const uint32_t compare)
{
	/* Sanity check arguments */
	Assert(module_inst);

	return _tcc_set_compare_value(module_inst, channel_index, compare,
    1b30:	0003      	movs	r3, r0
{
    1b32:	b510      	push	{r4, lr}
	return _tcc_set_compare_value(module_inst, channel_index, compare,
    1b34:	333c      	adds	r3, #60	; 0x3c
    1b36:	781b      	ldrb	r3, [r3, #0]
    1b38:	6800      	ldr	r0, [r0, #0]
    1b3a:	f7ff ffd1 	bl	1ae0 <_tcc_set_compare_value.isra.5>
			module_inst->double_buffering_enabled);
}
    1b3e:	bd10      	pop	{r4, pc}

00001b40 <_tcc_interrupt_handler>:
 * \param[in]  module_index  ID of the TCC instance calling the interrupt
 *                           handler
 */
void _tcc_interrupt_handler(
		uint8_t module_index)
{
    1b40:	b5f8      	push	{r3, r4, r5, r6, r7, lr}
	uint32_t interrupt_and_callback_status_mask;

	struct tcc_module *module =
			(struct tcc_module *)_tcc_instances[module_index];

	interrupt_and_callback_status_mask = (module->hw->INTFLAG.reg &
    1b42:	2500      	movs	r5, #0
	struct tcc_module *module =
    1b44:	4b0b      	ldr	r3, [pc, #44]	; (1b74 <_tcc_interrupt_handler+0x34>)
    1b46:	0080      	lsls	r0, r0, #2
    1b48:	58c4      	ldr	r4, [r0, r3]
	interrupt_and_callback_status_mask = (module->hw->INTFLAG.reg &
    1b4a:	6823      	ldr	r3, [r4, #0]
    1b4c:	6b62      	ldr	r2, [r4, #52]	; 0x34
    1b4e:	6ade      	ldr	r6, [r3, #44]	; 0x2c
    1b50:	6ba3      	ldr	r3, [r4, #56]	; 0x38
    1b52:	4013      	ands	r3, r2
    1b54:	401e      	ands	r6, r3
			module->register_callback_mask &
			module->enable_callback_mask);

	/* Check if callback interrupt has occured */
	for (i = 0; i < TCC_CALLBACK_N; i ++) {
		if (interrupt_and_callback_status_mask & _tcc_intflag[i]) {
    1b56:	4b08      	ldr	r3, [pc, #32]	; (1b78 <_tcc_interrupt_handler+0x38>)
    1b58:	58ef      	ldr	r7, [r5, r3]
    1b5a:	4237      	tst	r7, r6
    1b5c:	d005      	beq.n	1b6a <_tcc_interrupt_handler+0x2a>
			/* Invoke the registered and enabled callback function */
			(module->callback[i])(module);
    1b5e:	1963      	adds	r3, r4, r5
    1b60:	685b      	ldr	r3, [r3, #4]
    1b62:	0020      	movs	r0, r4
    1b64:	4798      	blx	r3
			/* Clear interrupt flag */
			module->hw->INTFLAG.reg = _tcc_intflag[i];
    1b66:	6823      	ldr	r3, [r4, #0]
    1b68:	62df      	str	r7, [r3, #44]	; 0x2c
    1b6a:	3504      	adds	r5, #4
	for (i = 0; i < TCC_CALLBACK_N; i ++) {
    1b6c:	2d30      	cmp	r5, #48	; 0x30
    1b6e:	d1f2      	bne.n	1b56 <_tcc_interrupt_handler+0x16>
		}
	}
}
    1b70:	bdf8      	pop	{r3, r4, r5, r6, r7, pc}
    1b72:	46c0      	nop			; (mov r8, r8)
    1b74:	20000210 	.word	0x20000210
    1b78:	0000250c 	.word	0x0000250c

00001b7c <TCC0_Handler>:
MREPEAT(TCC_INST_NUM, _TCC_INTERRUPT_HANDLER, 0)
    1b7c:	b510      	push	{r4, lr}
    1b7e:	2000      	movs	r0, #0
    1b80:	f7ff ffde 	bl	1b40 <_tcc_interrupt_handler>
    1b84:	bd10      	pop	{r4, pc}

00001b86 <tc_register_callback>:
	/* Sanity check arguments */
	Assert(module);
	Assert(callback_func);

	/* Register callback function */
	module->callback[callback_type] = callback_func;
    1b86:	1c93      	adds	r3, r2, #2
    1b88:	009b      	lsls	r3, r3, #2
    1b8a:	5019      	str	r1, [r3, r0]
    1b8c:	7e03      	ldrb	r3, [r0, #24]

	/* Set the bit corresponding to the callback_type */
	if (callback_type == TC_CALLBACK_CC_CHANNEL0) {
    1b8e:	2a02      	cmp	r2, #2
    1b90:	d104      	bne.n	1b9c <tc_register_callback+0x16>
		module->register_callback_mask |= TC_INTFLAG_MC(1);
    1b92:	320e      	adds	r2, #14
	}
	else if (callback_type == TC_CALLBACK_CC_CHANNEL1) {
		module->register_callback_mask |= TC_INTFLAG_MC(2);
    1b94:	4313      	orrs	r3, r2
	}
	else {
		module->register_callback_mask |= (1 << callback_type);
    1b96:	7603      	strb	r3, [r0, #24]
	}
	return STATUS_OK;
}
    1b98:	2000      	movs	r0, #0
    1b9a:	4770      	bx	lr
	else if (callback_type == TC_CALLBACK_CC_CHANNEL1) {
    1b9c:	2a03      	cmp	r2, #3
    1b9e:	d101      	bne.n	1ba4 <tc_register_callback+0x1e>
		module->register_callback_mask |= TC_INTFLAG_MC(2);
    1ba0:	321d      	adds	r2, #29
    1ba2:	e7f7      	b.n	1b94 <tc_register_callback+0xe>
		module->register_callback_mask |= (1 << callback_type);
    1ba4:	2101      	movs	r1, #1
    1ba6:	4091      	lsls	r1, r2
    1ba8:	430b      	orrs	r3, r1
    1baa:	e7f4      	b.n	1b96 <tc_register_callback+0x10>

00001bac <_tc_interrupt_handler>:
 * \param[in]  instance  ID of the TC instance calling the interrupt
 *                       handler
 */
void _tc_interrupt_handler(
		uint8_t instance)
{
    1bac:	b570      	push	{r4, r5, r6, lr}
	interrupt_and_callback_status_mask = module->hw->COUNT8.INTFLAG.reg &
			module->register_callback_mask &
			module->enable_callback_mask;

	/* Check if an Overflow interrupt has occurred */
	if (interrupt_and_callback_status_mask & TC_INTFLAG_OVF) {
    1bae:	2601      	movs	r6, #1
	struct tc_module *module
    1bb0:	4b14      	ldr	r3, [pc, #80]	; (1c04 <_tc_interrupt_handler+0x58>)
    1bb2:	0080      	lsls	r0, r0, #2
    1bb4:	58c4      	ldr	r4, [r0, r3]
	interrupt_and_callback_status_mask = module->hw->COUNT8.INTFLAG.reg &
    1bb6:	6823      	ldr	r3, [r4, #0]
    1bb8:	7e22      	ldrb	r2, [r4, #24]
    1bba:	7e65      	ldrb	r5, [r4, #25]
    1bbc:	7b9b      	ldrb	r3, [r3, #14]
    1bbe:	4015      	ands	r5, r2
    1bc0:	401d      	ands	r5, r3
	if (interrupt_and_callback_status_mask & TC_INTFLAG_OVF) {
    1bc2:	4235      	tst	r5, r6
    1bc4:	d004      	beq.n	1bd0 <_tc_interrupt_handler+0x24>
		/* Invoke registered and enabled callback function */
		(module->callback[TC_CALLBACK_OVERFLOW])(module);
    1bc6:	68a3      	ldr	r3, [r4, #8]
    1bc8:	0020      	movs	r0, r4
    1bca:	4798      	blx	r3
		/* Clear interrupt flag */
		module->hw->COUNT8.INTFLAG.reg = TC_INTFLAG_OVF;
    1bcc:	6823      	ldr	r3, [r4, #0]
    1bce:	739e      	strb	r6, [r3, #14]
	}

	/* Check if an Error interrupt has occurred */
	if (interrupt_and_callback_status_mask & TC_INTFLAG_ERR) {
    1bd0:	2602      	movs	r6, #2
    1bd2:	4235      	tst	r5, r6
    1bd4:	d004      	beq.n	1be0 <_tc_interrupt_handler+0x34>
		/* Invoke registered and enabled callback function */
		(module->callback[TC_CALLBACK_ERROR])(module);
    1bd6:	68e3      	ldr	r3, [r4, #12]
    1bd8:	0020      	movs	r0, r4
    1bda:	4798      	blx	r3
		/* Clear interrupt flag */
		module->hw->COUNT8.INTFLAG.reg = TC_INTFLAG_ERR;
    1bdc:	6823      	ldr	r3, [r4, #0]
    1bde:	739e      	strb	r6, [r3, #14]
	}

	/* Check if an Match/Capture Channel 0 interrupt has occurred */
	if (interrupt_and_callback_status_mask & TC_INTFLAG_MC(1)) {
    1be0:	2610      	movs	r6, #16
    1be2:	4235      	tst	r5, r6
    1be4:	d004      	beq.n	1bf0 <_tc_interrupt_handler+0x44>
		/* Invoke registered and enabled callback function */
		(module->callback[TC_CALLBACK_CC_CHANNEL0])(module);
    1be6:	6923      	ldr	r3, [r4, #16]
    1be8:	0020      	movs	r0, r4
    1bea:	4798      	blx	r3
		/* Clear interrupt flag */
		module->hw->COUNT8.INTFLAG.reg = TC_INTFLAG_MC(1);
    1bec:	6823      	ldr	r3, [r4, #0]
    1bee:	739e      	strb	r6, [r3, #14]
	}

	/* Check if an Match/Capture Channel 1 interrupt has occurred */
	if (interrupt_and_callback_status_mask & TC_INTFLAG_MC(2)) {
    1bf0:	2620      	movs	r6, #32
    1bf2:	4235      	tst	r5, r6
    1bf4:	d004      	beq.n	1c00 <_tc_interrupt_handler+0x54>
		/* Invoke registered and enabled callback function */
		(module->callback[TC_CALLBACK_CC_CHANNEL1])(module);
    1bf6:	6963      	ldr	r3, [r4, #20]
    1bf8:	0020      	movs	r0, r4
    1bfa:	4798      	blx	r3
		/* Clear interrupt flag */
		module->hw->COUNT8.INTFLAG.reg = TC_INTFLAG_MC(2);
    1bfc:	6823      	ldr	r3, [r4, #0]
    1bfe:	739e      	strb	r6, [r3, #14]
	}
}
    1c00:	bd70      	pop	{r4, r5, r6, pc}
    1c02:	46c0      	nop			; (mov r8, r8)
    1c04:	20000214 	.word	0x20000214

00001c08 <TC1_Handler>:
	MRECURSION(TC_INST_NUM, _TC_INTERRUPT_HANDLER, TC_INST_MAX_ID)
    1c08:	b510      	push	{r4, lr}
    1c0a:	2000      	movs	r0, #0
    1c0c:	f7ff ffce 	bl	1bac <_tc_interrupt_handler>
    1c10:	bd10      	pop	{r4, pc}

00001c12 <TC2_Handler>:
    1c12:	b510      	push	{r4, lr}
    1c14:	2001      	movs	r0, #1
    1c16:	f7ff ffc9 	bl	1bac <_tc_interrupt_handler>
    1c1a:	bd10      	pop	{r4, pc}

00001c1c <_tc_get_inst_index>:
	/* List of available TC modules. */
	Tc *const tc_modules[TC_INST_NUM] = TC_INSTS;

	/* Find index for TC instance. */
	for (uint32_t i = 0; i < TC_INST_NUM; i++) {
		if (hw == tc_modules[i]) {
    1c1c:	4b06      	ldr	r3, [pc, #24]	; (1c38 <_tc_get_inst_index+0x1c>)
    1c1e:	4298      	cmp	r0, r3
    1c20:	d007      	beq.n	1c32 <_tc_get_inst_index+0x16>
    1c22:	4a06      	ldr	r2, [pc, #24]	; (1c3c <_tc_get_inst_index+0x20>)
		}
	}

	/* Invalid data given. */
	Assert(false);
	return 0;
    1c24:	2300      	movs	r3, #0
		if (hw == tc_modules[i]) {
    1c26:	4290      	cmp	r0, r2
    1c28:	d101      	bne.n	1c2e <_tc_get_inst_index+0x12>
	for (uint32_t i = 0; i < TC_INST_NUM; i++) {
    1c2a:	3301      	adds	r3, #1
			return i;
    1c2c:	b2db      	uxtb	r3, r3
}
    1c2e:	0018      	movs	r0, r3
    1c30:	4770      	bx	lr
	for (uint32_t i = 0; i < TC_INST_NUM; i++) {
    1c32:	2300      	movs	r3, #0
    1c34:	e7fa      	b.n	1c2c <_tc_get_inst_index+0x10>
    1c36:	46c0      	nop			; (mov r8, r8)
    1c38:	42001800 	.word	0x42001800
    1c3c:	42001c00 	.word	0x42001c00

00001c40 <tc_init>:
 */
enum status_code tc_init(
		struct tc_module *const module_inst,
		Tc *const hw,
		const struct tc_config *const config)
{
    1c40:	b5f0      	push	{r4, r5, r6, r7, lr}
    1c42:	0005      	movs	r5, r0
    1c44:	b085      	sub	sp, #20
	uint8_t ctrlbset_tmp = 0;
	/* Temporary variable to hold all updates to the CTRLC
	 * register before they are written to it */
	uint8_t ctrlc_tmp = 0;
	/* Temporary variable to hold TC instance number */
	uint8_t instance = _tc_get_inst_index(hw);
    1c46:	0008      	movs	r0, r1
{
    1c48:	0014      	movs	r4, r2
    1c4a:	000e      	movs	r6, r1
	uint8_t instance = _tc_get_inst_index(hw);
    1c4c:	f7ff ffe6 	bl	1c1c <_tc_get_inst_index>

	/* Array of GLCK ID for different TC instances */
	uint8_t inst_gclk_id[] = TC_INST_GCLK_ID;
    1c50:	466a      	mov	r2, sp
    1c52:	2312      	movs	r3, #18
    1c54:	7113      	strb	r3, [r2, #4]
    1c56:	7153      	strb	r3, [r2, #5]
	/* Array of PM APBC mask bit position for different TC instances */
	uint16_t inst_pm_apbmask[] = TC_INST_PM_APBCMASK;
    1c58:	332e      	adds	r3, #46	; 0x2e
    1c5a:	8113      	strh	r3, [r2, #8]
    1c5c:	3340      	adds	r3, #64	; 0x40
    1c5e:	8153      	strh	r3, [r2, #10]
	struct system_gclk_chan_config gclk_chan_config;

#if TC_ASYNC == true
	/* Initialize parameters */
	for (uint8_t i = 0; i < TC_CALLBACK_N; i++) {
		module_inst->callback[i]        = NULL;
    1c60:	2300      	movs	r3, #0
    1c62:	60ab      	str	r3, [r5, #8]
    1c64:	60eb      	str	r3, [r5, #12]
    1c66:	612b      	str	r3, [r5, #16]
    1c68:	616b      	str	r3, [r5, #20]
	}
	module_inst->register_callback_mask     = 0x00;
    1c6a:	762b      	strb	r3, [r5, #24]
	module_inst->enable_callback_mask       = 0x00;
    1c6c:	766b      	strb	r3, [r5, #25]

	/* Register this instance for callbacks*/
	_tc_instances[instance] = module_inst;
    1c6e:	4b7c      	ldr	r3, [pc, #496]	; (1e60 <tc_init+0x220>)
    1c70:	0082      	lsls	r2, r0, #2
    1c72:	50d5      	str	r5, [r2, r3]
#endif

	/* Associate the given device instance with the hardware module */
	module_inst->hw = hw;
    1c74:	602e      	str	r6, [r5, #0]
#if SAMD09 || SAMD10 || SAMD11 || SAMHA1 || SAMHA0
	/* Check if even numbered TC modules are being configured in 32-bit
	 * counter size. Only odd numbered counters are allowed to be
	 * configured in 32-bit counter size.
	 */
	if ((config->counter_size == TC_COUNTER_SIZE_32BIT) &&
    1c76:	78a3      	ldrb	r3, [r4, #2]
	uint8_t instance = _tc_get_inst_index(hw);
    1c78:	0007      	movs	r7, r0
	if ((config->counter_size == TC_COUNTER_SIZE_32BIT) &&
    1c7a:	2b08      	cmp	r3, #8
    1c7c:	d103      	bne.n	1c86 <tc_init+0x46>
			!((instance + TC_INSTANCE_OFFSET) & 0x01)) {
		Assert(false);
		return STATUS_ERR_INVALID_ARG;
    1c7e:	2017      	movs	r0, #23
	if ((config->counter_size == TC_COUNTER_SIZE_32BIT) &&
    1c80:	07fa      	lsls	r2, r7, #31
    1c82:	d500      	bpl.n	1c86 <tc_init+0x46>
    1c84:	e0d5      	b.n	1e32 <tc_init+0x1f2>
	/* Make the counter size variable in the module_inst struct reflect
	 * the counter size in the module
	 */
	module_inst->counter_size = config->counter_size;

	if (hw->COUNT8.CTRLA.reg & TC_CTRLA_SWRST) {
    1c86:	2201      	movs	r2, #1
	module_inst->counter_size = config->counter_size;
    1c88:	712b      	strb	r3, [r5, #4]
	if (hw->COUNT8.CTRLA.reg & TC_CTRLA_SWRST) {
    1c8a:	8833      	ldrh	r3, [r6, #0]
		/* We are in the middle of a reset. Abort. */
		return STATUS_BUSY;
    1c8c:	2005      	movs	r0, #5
	if (hw->COUNT8.CTRLA.reg & TC_CTRLA_SWRST) {
    1c8e:	4213      	tst	r3, r2
    1c90:	d000      	beq.n	1c94 <tc_init+0x54>
    1c92:	e0ce      	b.n	1e32 <tc_init+0x1f2>
	}

	if (hw->COUNT8.STATUS.reg & TC_STATUS_SLAVE) {
    1c94:	7bf3      	ldrb	r3, [r6, #15]
		/* Module is used as a slave */
		return STATUS_ERR_DENIED;
    1c96:	3017      	adds	r0, #23
	if (hw->COUNT8.STATUS.reg & TC_STATUS_SLAVE) {
    1c98:	06db      	lsls	r3, r3, #27
    1c9a:	d500      	bpl.n	1c9e <tc_init+0x5e>
    1c9c:	e0c9      	b.n	1e32 <tc_init+0x1f2>
	}

	if (hw->COUNT8.CTRLA.reg & TC_CTRLA_ENABLE) {
    1c9e:	2102      	movs	r1, #2
    1ca0:	8833      	ldrh	r3, [r6, #0]
    1ca2:	400b      	ands	r3, r1
    1ca4:	d000      	beq.n	1ca8 <tc_init+0x68>
    1ca6:	e0c4      	b.n	1e32 <tc_init+0x1f2>
		/* Module must be disabled before initialization. Abort. */
		return STATUS_ERR_DENIED;
	}

	/* Set up the TC PWM out pin for channel 0 */
	if (config->pwm_channel[0].enabled) {
    1ca8:	7c21      	ldrb	r1, [r4, #16]
    1caa:	2900      	cmp	r1, #0
    1cac:	d008      	beq.n	1cc0 <tc_init+0x80>
	config->input_pull   = SYSTEM_PINMUX_PIN_PULL_UP;
    1cae:	a903      	add	r1, sp, #12
	config->powersave    = false;
    1cb0:	70cb      	strb	r3, [r1, #3]
		system_pinmux_get_config_defaults(&pin_config);
		pin_config.mux_position = config->pwm_channel[0].pin_mux;
    1cb2:	7e23      	ldrb	r3, [r4, #24]
		pin_config.direction = SYSTEM_PINMUX_PIN_DIR_OUTPUT;
		system_pinmux_pin_set_config(
    1cb4:	7d20      	ldrb	r0, [r4, #20]
	config->input_pull   = SYSTEM_PINMUX_PIN_PULL_UP;
    1cb6:	708a      	strb	r2, [r1, #2]
		pin_config.mux_position = config->pwm_channel[0].pin_mux;
    1cb8:	700b      	strb	r3, [r1, #0]
		pin_config.direction = SYSTEM_PINMUX_PIN_DIR_OUTPUT;
    1cba:	704a      	strb	r2, [r1, #1]
		system_pinmux_pin_set_config(
    1cbc:	f7ff fef0 	bl	1aa0 <system_pinmux_pin_set_config>
				config->pwm_channel[0].pin_out, &pin_config);
	}

	/* Set up the TC PWM out pin for channel 1 */
	if (config->pwm_channel[1].enabled) {
    1cc0:	7f23      	ldrb	r3, [r4, #28]
    1cc2:	2b00      	cmp	r3, #0
    1cc4:	d00e      	beq.n	1ce4 <tc_init+0xa4>
	config->powersave    = false;
    1cc6:	2200      	movs	r2, #0
	config->input_pull   = SYSTEM_PINMUX_PIN_PULL_UP;
    1cc8:	2301      	movs	r3, #1
    1cca:	a903      	add	r1, sp, #12
	config->powersave    = false;
    1ccc:	70ca      	strb	r2, [r1, #3]
		system_pinmux_get_config_defaults(&pin_config);
		pin_config.mux_position = config->pwm_channel[1].pin_mux;
    1cce:	3224      	adds	r2, #36	; 0x24
	config->input_pull   = SYSTEM_PINMUX_PIN_PULL_UP;
    1cd0:	708b      	strb	r3, [r1, #2]
    1cd2:	18a2      	adds	r2, r4, r2
		pin_config.direction = SYSTEM_PINMUX_PIN_DIR_OUTPUT;
    1cd4:	704b      	strb	r3, [r1, #1]
		system_pinmux_pin_set_config(
    1cd6:	331f      	adds	r3, #31
		pin_config.mux_position = config->pwm_channel[1].pin_mux;
    1cd8:	7812      	ldrb	r2, [r2, #0]
		system_pinmux_pin_set_config(
    1cda:	18e3      	adds	r3, r4, r3
    1cdc:	7818      	ldrb	r0, [r3, #0]
		pin_config.mux_position = config->pwm_channel[1].pin_mux;
    1cde:	700a      	strb	r2, [r1, #0]
		system_pinmux_pin_set_config(
    1ce0:	f7ff fede 	bl	1aa0 <system_pinmux_pin_set_config>
				config->pwm_channel[1].pin_out, &pin_config);
	}

	/* Enable the user interface clock in the PM */
	system_apb_clock_set_mask(SYSTEM_CLOCK_APB_APBC,
			inst_pm_apbmask[instance]);
    1ce4:	007a      	lsls	r2, r7, #1
    1ce6:	4694      	mov	ip, r2
	system_apb_clock_set_mask(SYSTEM_CLOCK_APB_APBC,
    1ce8:	4668      	mov	r0, sp
    1cea:	2208      	movs	r2, #8
    1cec:	1880      	adds	r0, r0, r2
    1cee:	4662      	mov	r2, ip
			PM->APBCMASK.reg |= mask;
    1cf0:	4b5c      	ldr	r3, [pc, #368]	; (1e64 <tc_init+0x224>)
    1cf2:	5a82      	ldrh	r2, [r0, r2]
    1cf4:	6a19      	ldr	r1, [r3, #32]
    1cf6:	430a      	orrs	r2, r1
    1cf8:	621a      	str	r2, [r3, #32]

	/* Enable the slave counter if counter_size is 32-bit */
	if ((config->counter_size == TC_COUNTER_SIZE_32BIT))
    1cfa:	78a2      	ldrb	r2, [r4, #2]
    1cfc:	2a08      	cmp	r2, #8
    1cfe:	d10a      	bne.n	1d16 <tc_init+0xd6>
	{
		/* Enable the user interface clock in the PM */
		system_apb_clock_set_mask(SYSTEM_CLOCK_APB_APBC,
				inst_pm_apbmask[instance + 1]);
    1d00:	1c79      	adds	r1, r7, #1
    1d02:	004a      	lsls	r2, r1, #1
    1d04:	4694      	mov	ip, r2
		system_apb_clock_set_mask(SYSTEM_CLOCK_APB_APBC,
    1d06:	2108      	movs	r1, #8
    1d08:	466a      	mov	r2, sp
    1d0a:	1852      	adds	r2, r2, r1
    1d0c:	4661      	mov	r1, ip
    1d0e:	6a18      	ldr	r0, [r3, #32]
    1d10:	5a52      	ldrh	r2, [r2, r1]
    1d12:	4302      	orrs	r2, r0
    1d14:	621a      	str	r2, [r3, #32]
	}

	/* Setup clock for module */
	system_gclk_chan_get_config_defaults(&gclk_chan_config);
	gclk_chan_config.source_generator = config->clock_source;
    1d16:	466a      	mov	r2, sp
    1d18:	7823      	ldrb	r3, [r4, #0]
	system_gclk_chan_set_config(inst_gclk_id[instance], &gclk_chan_config);
    1d1a:	4669      	mov	r1, sp
	gclk_chan_config.source_generator = config->clock_source;
    1d1c:	7013      	strb	r3, [r2, #0]
	system_gclk_chan_set_config(inst_gclk_id[instance], &gclk_chan_config);
    1d1e:	466b      	mov	r3, sp
    1d20:	3304      	adds	r3, #4
    1d22:	5ddf      	ldrb	r7, [r3, r7]
    1d24:	0038      	movs	r0, r7
    1d26:	f7ff fe59 	bl	19dc <system_gclk_chan_set_config>
	system_gclk_chan_enable(inst_gclk_id[instance]);
    1d2a:	0038      	movs	r0, r7
    1d2c:	f7ff fe1a 	bl	1964 <system_gclk_chan_enable>

	/* Set ctrla register */
	ctrla_tmp =
    1d30:	8923      	ldrh	r3, [r4, #8]
    1d32:	88a2      	ldrh	r2, [r4, #4]
			(uint32_t)config->counter_size |
			(uint32_t)config->wave_generation |
    1d34:	79a1      	ldrb	r1, [r4, #6]
	ctrla_tmp =
    1d36:	431a      	orrs	r2, r3
			(uint32_t)config->wave_generation |
    1d38:	78a3      	ldrb	r3, [r4, #2]
    1d3a:	430b      	orrs	r3, r1
	ctrla_tmp =
    1d3c:	4313      	orrs	r3, r2
			(uint32_t)config->reload_action |
			(uint32_t)config->clock_prescaler;

	if (config->run_in_standby) {
    1d3e:	7862      	ldrb	r2, [r4, #1]
    1d40:	2a00      	cmp	r2, #0
    1d42:	d002      	beq.n	1d4a <tc_init+0x10a>
		ctrla_tmp |= TC_CTRLA_RUNSTDBY;
    1d44:	2280      	movs	r2, #128	; 0x80
    1d46:	0112      	lsls	r2, r2, #4
    1d48:	4313      	orrs	r3, r2
    1d4a:	6829      	ldr	r1, [r5, #0]
	return (tc_module->STATUS.reg & TC_STATUS_SYNCBUSY);
    1d4c:	7bca      	ldrb	r2, [r1, #15]
	}

	/* Write configuration to register */
	while (tc_is_syncing(module_inst)) {
    1d4e:	b252      	sxtb	r2, r2
    1d50:	2a00      	cmp	r2, #0
    1d52:	dbfb      	blt.n	1d4c <tc_init+0x10c>
		/* Wait for sync */
	}
	hw->COUNT8.CTRLA.reg = ctrla_tmp;
    1d54:	8033      	strh	r3, [r6, #0]

	/* Set ctrlb register */
	if (config->oneshot) {
    1d56:	7b63      	ldrb	r3, [r4, #13]
		ctrlbset_tmp = TC_CTRLBSET_ONESHOT;
    1d58:	1e5a      	subs	r2, r3, #1
    1d5a:	4193      	sbcs	r3, r2
	}

	if (config->count_direction) {
    1d5c:	7ba2      	ldrb	r2, [r4, #14]
		ctrlbset_tmp = TC_CTRLBSET_ONESHOT;
    1d5e:	009b      	lsls	r3, r3, #2
	if (config->count_direction) {
    1d60:	2a00      	cmp	r2, #0
    1d62:	d001      	beq.n	1d68 <tc_init+0x128>
		ctrlbset_tmp |= TC_CTRLBSET_DIR;
    1d64:	2201      	movs	r2, #1
    1d66:	4313      	orrs	r3, r2
    1d68:	6829      	ldr	r1, [r5, #0]
    1d6a:	7bca      	ldrb	r2, [r1, #15]
	}

	/* Clear old ctrlb configuration */
	while (tc_is_syncing(module_inst)) {
    1d6c:	b252      	sxtb	r2, r2
    1d6e:	2a00      	cmp	r2, #0
    1d70:	dbfb      	blt.n	1d6a <tc_init+0x12a>
		/* Wait for sync */
	}
	hw->COUNT8.CTRLBCLR.reg = 0xFF;
    1d72:	22ff      	movs	r2, #255	; 0xff
    1d74:	7132      	strb	r2, [r6, #4]

	/* Check if we actually need to go into a wait state. */
	if (ctrlbset_tmp) {
    1d76:	2b00      	cmp	r3, #0
    1d78:	d005      	beq.n	1d86 <tc_init+0x146>
    1d7a:	6829      	ldr	r1, [r5, #0]
    1d7c:	7bca      	ldrb	r2, [r1, #15]
		while (tc_is_syncing(module_inst)) {
    1d7e:	b252      	sxtb	r2, r2
    1d80:	2a00      	cmp	r2, #0
    1d82:	dbfb      	blt.n	1d7c <tc_init+0x13c>
			/* Wait for sync */
		}
		/* Write configuration to register */
		hw->COUNT8.CTRLBSET.reg = ctrlbset_tmp;
    1d84:	7173      	strb	r3, [r6, #5]
	}

	/* Set ctrlc register*/
	ctrlc_tmp = config->waveform_invert_output;
	for (uint8_t i = 0; i < NUMBER_OF_COMPARE_CAPTURE_CHANNELS; i++) {
		if (config->enable_capture_on_channel[i] == true) {
    1d86:	7ae3      	ldrb	r3, [r4, #11]
	ctrlc_tmp = config->waveform_invert_output;
    1d88:	7aa2      	ldrb	r2, [r4, #10]
		if (config->enable_capture_on_channel[i] == true) {
    1d8a:	2b00      	cmp	r3, #0
    1d8c:	d001      	beq.n	1d92 <tc_init+0x152>
			ctrlc_tmp |= (TC_CTRLC_CPTEN(1) << i);
    1d8e:	2310      	movs	r3, #16
    1d90:	431a      	orrs	r2, r3
		if (config->enable_capture_on_channel[i] == true) {
    1d92:	7b23      	ldrb	r3, [r4, #12]
    1d94:	2b00      	cmp	r3, #0
    1d96:	d001      	beq.n	1d9c <tc_init+0x15c>
			ctrlc_tmp |= (TC_CTRLC_CPTEN(1) << i);
    1d98:	2320      	movs	r3, #32
    1d9a:	431a      	orrs	r2, r3
    1d9c:	6829      	ldr	r1, [r5, #0]
    1d9e:	7bcb      	ldrb	r3, [r1, #15]
		}
	}

	/* Write configuration to register */
	while (tc_is_syncing(module_inst)) {
    1da0:	b25b      	sxtb	r3, r3
    1da2:	2b00      	cmp	r3, #0
    1da4:	dbfb      	blt.n	1d9e <tc_init+0x15e>
		/* Wait for sync */
	}
	hw->COUNT8.CTRLC.reg = ctrlc_tmp;
    1da6:	71b2      	strb	r2, [r6, #6]
    1da8:	682b      	ldr	r3, [r5, #0]
    1daa:	7bda      	ldrb	r2, [r3, #15]

	/* Write configuration to register */
	while (tc_is_syncing(module_inst)) {
    1dac:	b252      	sxtb	r2, r2
    1dae:	2a00      	cmp	r2, #0
    1db0:	dbfb      	blt.n	1daa <tc_init+0x16a>
		/* Wait for sync */
	}

	/* Switch for TC counter size  */
	switch (module_inst->counter_size) {
    1db2:	792a      	ldrb	r2, [r5, #4]
    1db4:	2a04      	cmp	r2, #4
    1db6:	d019      	beq.n	1dec <tc_init+0x1ac>
    1db8:	2a08      	cmp	r2, #8
    1dba:	d03c      	beq.n	1e36 <tc_init+0x1f6>

			return STATUS_OK;
	}

	Assert(false);
	return STATUS_ERR_INVALID_ARG;
    1dbc:	2017      	movs	r0, #23
	switch (module_inst->counter_size) {
    1dbe:	2a00      	cmp	r2, #0
    1dc0:	d137      	bne.n	1e32 <tc_init+0x1f2>
    1dc2:	7bda      	ldrb	r2, [r3, #15]
			while (tc_is_syncing(module_inst)) {
    1dc4:	b252      	sxtb	r2, r2
    1dc6:	2a00      	cmp	r2, #0
    1dc8:	dbfb      	blt.n	1dc2 <tc_init+0x182>
				= config->counter_16_bit.value;
    1dca:	8d23      	ldrh	r3, [r4, #40]	; 0x28
    1dcc:	8233      	strh	r3, [r6, #16]
    1dce:	682a      	ldr	r2, [r5, #0]
    1dd0:	7bd3      	ldrb	r3, [r2, #15]
			while (tc_is_syncing(module_inst)) {
    1dd2:	b25b      	sxtb	r3, r3
    1dd4:	2b00      	cmp	r3, #0
    1dd6:	dbfb      	blt.n	1dd0 <tc_init+0x190>
					config->counter_16_bit.compare_capture_channel[0];
    1dd8:	8d63      	ldrh	r3, [r4, #42]	; 0x2a
			hw->COUNT16.CC[0].reg =
    1dda:	8333      	strh	r3, [r6, #24]
    1ddc:	682a      	ldr	r2, [r5, #0]
    1dde:	7bd3      	ldrb	r3, [r2, #15]
			while (tc_is_syncing(module_inst)) {
    1de0:	b25b      	sxtb	r3, r3
    1de2:	2b00      	cmp	r3, #0
    1de4:	dbfb      	blt.n	1dde <tc_init+0x19e>
					config->counter_16_bit.compare_capture_channel[1];
    1de6:	8da3      	ldrh	r3, [r4, #44]	; 0x2c
			hw->COUNT16.CC[1].reg =
    1de8:	8373      	strh	r3, [r6, #26]
    1dea:	e021      	b.n	1e30 <tc_init+0x1f0>
    1dec:	7bda      	ldrb	r2, [r3, #15]
			while (tc_is_syncing(module_inst)) {
    1dee:	b252      	sxtb	r2, r2
    1df0:	2a00      	cmp	r2, #0
    1df2:	dbfb      	blt.n	1dec <tc_init+0x1ac>
					config->counter_8_bit.value;
    1df4:	0023      	movs	r3, r4
    1df6:	3328      	adds	r3, #40	; 0x28
    1df8:	781b      	ldrb	r3, [r3, #0]
			hw->COUNT8.COUNT.reg =
    1dfa:	7433      	strb	r3, [r6, #16]
    1dfc:	682a      	ldr	r2, [r5, #0]
    1dfe:	7bd3      	ldrb	r3, [r2, #15]
			while (tc_is_syncing(module_inst)) {
    1e00:	b25b      	sxtb	r3, r3
    1e02:	2b00      	cmp	r3, #0
    1e04:	dbfb      	blt.n	1dfe <tc_init+0x1be>
					config->counter_8_bit.period;
    1e06:	0023      	movs	r3, r4
    1e08:	3329      	adds	r3, #41	; 0x29
    1e0a:	781b      	ldrb	r3, [r3, #0]
			hw->COUNT8.PER.reg =
    1e0c:	7533      	strb	r3, [r6, #20]
    1e0e:	682a      	ldr	r2, [r5, #0]
    1e10:	7bd3      	ldrb	r3, [r2, #15]
			while (tc_is_syncing(module_inst)) {
    1e12:	b25b      	sxtb	r3, r3
    1e14:	2b00      	cmp	r3, #0
    1e16:	dbfb      	blt.n	1e10 <tc_init+0x1d0>
					config->counter_8_bit.compare_capture_channel[0];
    1e18:	0023      	movs	r3, r4
    1e1a:	332a      	adds	r3, #42	; 0x2a
    1e1c:	781b      	ldrb	r3, [r3, #0]
			hw->COUNT8.CC[0].reg =
    1e1e:	7633      	strb	r3, [r6, #24]
    1e20:	682a      	ldr	r2, [r5, #0]
    1e22:	7bd3      	ldrb	r3, [r2, #15]
			while (tc_is_syncing(module_inst)) {
    1e24:	b25b      	sxtb	r3, r3
    1e26:	2b00      	cmp	r3, #0
    1e28:	dbfb      	blt.n	1e22 <tc_init+0x1e2>
					config->counter_8_bit.compare_capture_channel[1];
    1e2a:	342b      	adds	r4, #43	; 0x2b
    1e2c:	7823      	ldrb	r3, [r4, #0]
			hw->COUNT8.CC[1].reg =
    1e2e:	7673      	strb	r3, [r6, #25]
			return STATUS_OK;
    1e30:	2000      	movs	r0, #0
}
    1e32:	b005      	add	sp, #20
    1e34:	bdf0      	pop	{r4, r5, r6, r7, pc}
    1e36:	7bda      	ldrb	r2, [r3, #15]
			while (tc_is_syncing(module_inst)) {
    1e38:	b252      	sxtb	r2, r2
    1e3a:	2a00      	cmp	r2, #0
    1e3c:	dbfb      	blt.n	1e36 <tc_init+0x1f6>
				= config->counter_32_bit.value;
    1e3e:	6aa3      	ldr	r3, [r4, #40]	; 0x28
    1e40:	6133      	str	r3, [r6, #16]
    1e42:	682a      	ldr	r2, [r5, #0]
    1e44:	7bd3      	ldrb	r3, [r2, #15]
			while (tc_is_syncing(module_inst)) {
    1e46:	b25b      	sxtb	r3, r3
    1e48:	2b00      	cmp	r3, #0
    1e4a:	dbfb      	blt.n	1e44 <tc_init+0x204>
			hw->COUNT32.CC[0].reg =
    1e4c:	6ae3      	ldr	r3, [r4, #44]	; 0x2c
    1e4e:	61b3      	str	r3, [r6, #24]
    1e50:	682a      	ldr	r2, [r5, #0]
    1e52:	7bd3      	ldrb	r3, [r2, #15]
			while (tc_is_syncing(module_inst)) {
    1e54:	b25b      	sxtb	r3, r3
    1e56:	2b00      	cmp	r3, #0
    1e58:	dbfb      	blt.n	1e52 <tc_init+0x212>
					config->counter_32_bit.compare_capture_channel[1];
    1e5a:	6b23      	ldr	r3, [r4, #48]	; 0x30
			hw->COUNT32.CC[1].reg =
    1e5c:	61f3      	str	r3, [r6, #28]
    1e5e:	e7e7      	b.n	1e30 <tc_init+0x1f0>
    1e60:	20000214 	.word	0x20000214
    1e64:	40000400 	.word	0x40000400

00001e68 <tc_set_compare_value>:
 */
enum status_code tc_set_compare_value(
		const struct tc_module *const module_inst,
		const enum tc_compare_capture_channel channel_index,
		const uint32_t compare)
{
    1e68:	b510      	push	{r4, lr}
	/* Sanity check arguments */
	Assert(module_inst);
	Assert(module_inst->hw);

	/* Get a pointer to the module's hardware instance */
	Tc *const tc_module = module_inst->hw;
    1e6a:	6804      	ldr	r4, [r0, #0]
    1e6c:	7be3      	ldrb	r3, [r4, #15]

	while (tc_is_syncing(module_inst)) {
    1e6e:	b25b      	sxtb	r3, r3
    1e70:	2b00      	cmp	r3, #0
    1e72:	dbfb      	blt.n	1e6c <tc_set_compare_value+0x4>
		/* Wait for sync */
	}

	/* Read out based on the TC counter size */
	switch (module_inst->counter_size) {
    1e74:	7903      	ldrb	r3, [r0, #4]
    1e76:	2b04      	cmp	r3, #4
    1e78:	d00c      	beq.n	1e94 <tc_set_compare_value+0x2c>
    1e7a:	2b08      	cmp	r3, #8
    1e7c:	d012      	beq.n	1ea4 <tc_set_compare_value+0x3c>
						(uint32_t)compare;
				return STATUS_OK;
			}
	}

	return STATUS_ERR_INVALID_ARG;
    1e7e:	2017      	movs	r0, #23
	switch (module_inst->counter_size) {
    1e80:	2b00      	cmp	r3, #0
    1e82:	d10e      	bne.n	1ea2 <tc_set_compare_value+0x3a>
	return STATUS_ERR_INVALID_ARG;
    1e84:	2017      	movs	r0, #23
			if (channel_index <
    1e86:	2901      	cmp	r1, #1
    1e88:	d80b      	bhi.n	1ea2 <tc_set_compare_value+0x3a>
				tc_module->COUNT16.CC[channel_index].reg =
    1e8a:	310c      	adds	r1, #12
						(uint16_t)compare;
    1e8c:	b292      	uxth	r2, r2
				tc_module->COUNT16.CC[channel_index].reg =
    1e8e:	0049      	lsls	r1, r1, #1
    1e90:	530a      	strh	r2, [r1, r4]
    1e92:	e005      	b.n	1ea0 <tc_set_compare_value+0x38>
	return STATUS_ERR_INVALID_ARG;
    1e94:	2017      	movs	r0, #23
			if (channel_index <
    1e96:	2901      	cmp	r1, #1
    1e98:	d803      	bhi.n	1ea2 <tc_set_compare_value+0x3a>
						(uint8_t)compare;
    1e9a:	b2d2      	uxtb	r2, r2
				tc_module->COUNT8.CC[channel_index].reg  =
    1e9c:	1861      	adds	r1, r4, r1
    1e9e:	760a      	strb	r2, [r1, #24]
				return STATUS_OK;
    1ea0:	2000      	movs	r0, #0
}
    1ea2:	bd10      	pop	{r4, pc}
	return STATUS_ERR_INVALID_ARG;
    1ea4:	2017      	movs	r0, #23
			if (channel_index <
    1ea6:	2901      	cmp	r1, #1
    1ea8:	d8fb      	bhi.n	1ea2 <tc_set_compare_value+0x3a>
				tc_module->COUNT32.CC[channel_index].reg =
    1eaa:	3106      	adds	r1, #6
    1eac:	0089      	lsls	r1, r1, #2
    1eae:	510a      	str	r2, [r1, r4]
    1eb0:	e7f6      	b.n	1ea0 <tc_set_compare_value+0x38>

00001eb2 <Dummy_Handler>:

/**
 * \brief Default interrupt handler for unused IRQs.
 */
void Dummy_Handler(void)
{
    1eb2:	e7fe      	b.n	1eb2 <Dummy_Handler>

00001eb4 <Reset_Handler>:
        if (pSrc != pDest) {
    1eb4:	4821      	ldr	r0, [pc, #132]	; (1f3c <Reset_Handler+0x88>)
    1eb6:	4922      	ldr	r1, [pc, #136]	; (1f40 <Reset_Handler+0x8c>)
{
    1eb8:	b570      	push	{r4, r5, r6, lr}
        if (pSrc != pDest) {
    1eba:	4288      	cmp	r0, r1
    1ebc:	d004      	beq.n	1ec8 <Reset_Handler+0x14>
    1ebe:	2300      	movs	r3, #0
                for (; pDest < &_erelocate;) {
    1ec0:	4c20      	ldr	r4, [pc, #128]	; (1f44 <Reset_Handler+0x90>)
    1ec2:	18ca      	adds	r2, r1, r3
    1ec4:	42a2      	cmp	r2, r4
    1ec6:	d332      	bcc.n	1f2e <Reset_Handler+0x7a>
                *pDest++ = 0;
    1ec8:	2100      	movs	r1, #0
    1eca:	4b1f      	ldr	r3, [pc, #124]	; (1f48 <Reset_Handler+0x94>)
        for (pDest = &_szero; pDest < &_ezero;) {
    1ecc:	4a1f      	ldr	r2, [pc, #124]	; (1f4c <Reset_Handler+0x98>)
    1ece:	4293      	cmp	r3, r2
    1ed0:	d331      	bcc.n	1f36 <Reset_Handler+0x82>
        SCB->VTOR = ((uint32_t) pSrc & SCB_VTOR_TBLOFF_Msk);
    1ed2:	21ff      	movs	r1, #255	; 0xff
    1ed4:	4b1e      	ldr	r3, [pc, #120]	; (1f50 <Reset_Handler+0x9c>)
    1ed6:	4a1f      	ldr	r2, [pc, #124]	; (1f54 <Reset_Handler+0xa0>)
    1ed8:	438b      	bics	r3, r1
    1eda:	6093      	str	r3, [r2, #8]
        SBMATRIX->SFR[SBMATRIX_SLAVE_HMCRAMC0].reg = 2;
    1edc:	2202      	movs	r2, #2
        USB->DEVICE.QOSCTRL.bit.DQOS = 2;
    1ede:	250c      	movs	r5, #12
    1ee0:	2408      	movs	r4, #8
        DMAC->QOSCTRL.bit.DQOS = 2;
    1ee2:	2630      	movs	r6, #48	; 0x30
        SBMATRIX->SFR[SBMATRIX_SLAVE_HMCRAMC0].reg = 2;
    1ee4:	4b1c      	ldr	r3, [pc, #112]	; (1f58 <Reset_Handler+0xa4>)
        USB->DEVICE.QOSCTRL.bit.CQOS = 2;
    1ee6:	481d      	ldr	r0, [pc, #116]	; (1f5c <Reset_Handler+0xa8>)
        SBMATRIX->SFR[SBMATRIX_SLAVE_HMCRAMC0].reg = 2;
    1ee8:	625a      	str	r2, [r3, #36]	; 0x24
        USB->DEVICE.QOSCTRL.bit.CQOS = 2;
    1eea:	78c3      	ldrb	r3, [r0, #3]
    1eec:	39fc      	subs	r1, #252	; 0xfc
    1eee:	438b      	bics	r3, r1
    1ef0:	4313      	orrs	r3, r2
    1ef2:	70c3      	strb	r3, [r0, #3]
        USB->DEVICE.QOSCTRL.bit.DQOS = 2;
    1ef4:	78c3      	ldrb	r3, [r0, #3]
    1ef6:	43ab      	bics	r3, r5
    1ef8:	4323      	orrs	r3, r4
    1efa:	70c3      	strb	r3, [r0, #3]
        DMAC->QOSCTRL.bit.DQOS = 2;
    1efc:	4b18      	ldr	r3, [pc, #96]	; (1f60 <Reset_Handler+0xac>)
    1efe:	7b98      	ldrb	r0, [r3, #14]
    1f00:	43b0      	bics	r0, r6
    1f02:	0006      	movs	r6, r0
    1f04:	2020      	movs	r0, #32
    1f06:	4330      	orrs	r0, r6
    1f08:	7398      	strb	r0, [r3, #14]
        DMAC->QOSCTRL.bit.FQOS = 2;
    1f0a:	7b98      	ldrb	r0, [r3, #14]
    1f0c:	43a8      	bics	r0, r5
    1f0e:	4304      	orrs	r4, r0
    1f10:	739c      	strb	r4, [r3, #14]
        DMAC->QOSCTRL.bit.WRBQOS = 2;
    1f12:	7b98      	ldrb	r0, [r3, #14]
    1f14:	4388      	bics	r0, r1
    1f16:	4302      	orrs	r2, r0
    1f18:	739a      	strb	r2, [r3, #14]
        NVMCTRL->CTRLB.bit.MANW = 1;
    1f1a:	2380      	movs	r3, #128	; 0x80
    1f1c:	4a11      	ldr	r2, [pc, #68]	; (1f64 <Reset_Handler+0xb0>)
    1f1e:	6851      	ldr	r1, [r2, #4]
    1f20:	430b      	orrs	r3, r1
    1f22:	6053      	str	r3, [r2, #4]
        __libc_init_array();
    1f24:	f000 fa94 	bl	2450 <__libc_init_array>
        main();
    1f28:	f000 f9f4 	bl	2314 <main>
    1f2c:	e7fe      	b.n	1f2c <Reset_Handler+0x78>
                        *pDest++ = *pSrc++;
    1f2e:	58c5      	ldr	r5, [r0, r3]
    1f30:	3304      	adds	r3, #4
    1f32:	6015      	str	r5, [r2, #0]
    1f34:	e7c5      	b.n	1ec2 <Reset_Handler+0xe>
                *pDest++ = 0;
    1f36:	c302      	stmia	r3!, {r1}
    1f38:	e7c9      	b.n	1ece <Reset_Handler+0x1a>
    1f3a:	46c0      	nop			; (mov r8, r8)
    1f3c:	00002584 	.word	0x00002584
    1f40:	20000000 	.word	0x20000000
    1f44:	20000020 	.word	0x20000020
    1f48:	20000020 	.word	0x20000020
    1f4c:	20000244 	.word	0x20000244
    1f50:	00000000 	.word	0x00000000
    1f54:	e000ed00 	.word	0xe000ed00
    1f58:	410070fc 	.word	0x410070fc
    1f5c:	41005000 	.word	0x41005000
    1f60:	41004800 	.word	0x41004800
    1f64:	41004000 	.word	0x41004000

00001f68 <set_color_green_indication>:
#define BUFFER_SET_COLOR_BLUE_PWM						{0x04, 0x20}
#define BUFFER_SET_COLOR_BLUE_PWM_TIMER					{0x02, 0x19}
#define BUFFER_SET_COLOR_BLUE_PWM_FLASH					{0x01, 0x82}


void set_color_green_indication(void) {
    1f68:	b573      	push	{r0, r1, r4, r5, r6, lr}
  uint8_t buffer_set_color_green[DATA_LENGTH_PRIMARY] = BUFFER_SET_COLOR_GREEN;
    1f6a:	2502      	movs	r5, #2
    1f6c:	ae01      	add	r6, sp, #4
    1f6e:	002a      	movs	r2, r5
    1f70:	4907      	ldr	r1, [pc, #28]	; (1f90 <set_color_green_indication+0x28>)
    1f72:	0030      	movs	r0, r6
    1f74:	f000 fa90 	bl	2498 <memcpy>
  packet.data = buffer_set_color_green;
  packet.address = KTD2026_DEVICE_ADDRESS;
    1f78:	2331      	movs	r3, #49	; 0x31
  packet.data = buffer_set_color_green;
    1f7a:	4c06      	ldr	r4, [pc, #24]	; (1f94 <set_color_green_indication+0x2c>)
    1f7c:	6066      	str	r6, [r4, #4]
  packet.address = KTD2026_DEVICE_ADDRESS;
    1f7e:	8023      	strh	r3, [r4, #0]
  packet.data_length = DATA_LENGTH_PRIMARY;
    1f80:	8065      	strh	r5, [r4, #2]
  while ((i2c_master_write_packet_wait(&i2c_master_instance, &packet)) !=
    1f82:	0021      	movs	r1, r4
    1f84:	4804      	ldr	r0, [pc, #16]	; (1f98 <set_color_green_indication+0x30>)
    1f86:	f7ff f86b 	bl	1060 <i2c_master_write_packet_wait>
    1f8a:	2800      	cmp	r0, #0
    1f8c:	d1f9      	bne.n	1f82 <set_color_green_indication+0x1a>
         STATUS_OK) {
  }
}
    1f8e:	bd73      	pop	{r0, r1, r4, r5, r6, pc}
    1f90:	0000253c 	.word	0x0000253c
    1f94:	20000014 	.word	0x20000014
    1f98:	2000021c 	.word	0x2000021c

00001f9c <set_color_red_indication>:

void set_color_red_indication(void) {
    1f9c:	b573      	push	{r0, r1, r4, r5, r6, lr}
  uint8_t buffer_set_color_red[DATA_LENGTH_PRIMARY] = BUFFER_SET_COLOR_RED;
    1f9e:	2502      	movs	r5, #2
    1fa0:	4909      	ldr	r1, [pc, #36]	; (1fc8 <set_color_red_indication+0x2c>)
    1fa2:	ae01      	add	r6, sp, #4
    1fa4:	002a      	movs	r2, r5
    1fa6:	1949      	adds	r1, r1, r5
    1fa8:	0030      	movs	r0, r6
    1faa:	f000 fa75 	bl	2498 <memcpy>
  packet.data = buffer_set_color_red;
  packet.address = KTD2026_DEVICE_ADDRESS;
    1fae:	2331      	movs	r3, #49	; 0x31
  packet.data = buffer_set_color_red;
    1fb0:	4c06      	ldr	r4, [pc, #24]	; (1fcc <set_color_red_indication+0x30>)
    1fb2:	6066      	str	r6, [r4, #4]
  packet.address = KTD2026_DEVICE_ADDRESS;
    1fb4:	8023      	strh	r3, [r4, #0]
  packet.data_length = DATA_LENGTH_PRIMARY;
    1fb6:	8065      	strh	r5, [r4, #2]
  while ((i2c_master_write_packet_wait(&i2c_master_instance, &packet)) !=
    1fb8:	0021      	movs	r1, r4
    1fba:	4805      	ldr	r0, [pc, #20]	; (1fd0 <set_color_red_indication+0x34>)
    1fbc:	f7ff f850 	bl	1060 <i2c_master_write_packet_wait>
    1fc0:	2800      	cmp	r0, #0
    1fc2:	d1f9      	bne.n	1fb8 <set_color_red_indication+0x1c>
         STATUS_OK) {
  }
}
    1fc4:	bd73      	pop	{r0, r1, r4, r5, r6, pc}
    1fc6:	46c0      	nop			; (mov r8, r8)
    1fc8:	0000253c 	.word	0x0000253c
    1fcc:	20000014 	.word	0x20000014
    1fd0:	2000021c 	.word	0x2000021c

00001fd4 <set_color_blue_indication>:

void set_color_blue_indication(void) {
    1fd4:	b573      	push	{r0, r1, r4, r5, r6, lr}
  uint8_t buffer_set_color_blue[DATA_LENGTH_PRIMARY] = BUFFER_SET_COLOR_BLUE;
    1fd6:	2502      	movs	r5, #2
    1fd8:	4909      	ldr	r1, [pc, #36]	; (2000 <set_color_blue_indication+0x2c>)
    1fda:	ae01      	add	r6, sp, #4
    1fdc:	002a      	movs	r2, r5
    1fde:	3104      	adds	r1, #4
    1fe0:	0030      	movs	r0, r6
    1fe2:	f000 fa59 	bl	2498 <memcpy>
  packet.data = buffer_set_color_blue;
  packet.address = KTD2026_DEVICE_ADDRESS;
    1fe6:	2331      	movs	r3, #49	; 0x31
  packet.data = buffer_set_color_blue;
    1fe8:	4c06      	ldr	r4, [pc, #24]	; (2004 <set_color_blue_indication+0x30>)
    1fea:	6066      	str	r6, [r4, #4]
  packet.address = KTD2026_DEVICE_ADDRESS;
    1fec:	8023      	strh	r3, [r4, #0]
  packet.data_length = DATA_LENGTH_PRIMARY;
    1fee:	8065      	strh	r5, [r4, #2]
  while ((i2c_master_write_packet_wait(&i2c_master_instance, &packet)) !=
    1ff0:	0021      	movs	r1, r4
    1ff2:	4805      	ldr	r0, [pc, #20]	; (2008 <set_color_blue_indication+0x34>)
    1ff4:	f7ff f834 	bl	1060 <i2c_master_write_packet_wait>
    1ff8:	2800      	cmp	r0, #0
    1ffa:	d1f9      	bne.n	1ff0 <set_color_blue_indication+0x1c>
         STATUS_OK) {
  }
}
    1ffc:	bd73      	pop	{r0, r1, r4, r5, r6, pc}
    1ffe:	46c0      	nop			; (mov r8, r8)
    2000:	0000253c 	.word	0x0000253c
    2004:	20000014 	.word	0x20000014
    2008:	2000021c 	.word	0x2000021c

0000200c <set_color_yellow_indication>:

void set_color_yellow_indication(void) {
    200c:	b573      	push	{r0, r1, r4, r5, r6, lr}
	uint8_t buffer_set_color_yellow[DATA_LENGTH_PRIMARY] = BUFFER_SET_COLOR_YELLOW;
    200e:	2502      	movs	r5, #2
    2010:	4909      	ldr	r1, [pc, #36]	; (2038 <set_color_yellow_indication+0x2c>)
    2012:	ae01      	add	r6, sp, #4
    2014:	002a      	movs	r2, r5
    2016:	3106      	adds	r1, #6
    2018:	0030      	movs	r0, r6
    201a:	f000 fa3d 	bl	2498 <memcpy>
	packet.data = buffer_set_color_yellow;
	packet.address = KTD2026_DEVICE_ADDRESS;
    201e:	2331      	movs	r3, #49	; 0x31
	packet.data = buffer_set_color_yellow;
    2020:	4c06      	ldr	r4, [pc, #24]	; (203c <set_color_yellow_indication+0x30>)
    2022:	6066      	str	r6, [r4, #4]
	packet.address = KTD2026_DEVICE_ADDRESS;
    2024:	8023      	strh	r3, [r4, #0]
	packet.data_length = DATA_LENGTH_PRIMARY;
    2026:	8065      	strh	r5, [r4, #2]

	while ((i2c_master_write_packet_wait(&i2c_master_instance, &packet)) !=
    2028:	0021      	movs	r1, r4
    202a:	4805      	ldr	r0, [pc, #20]	; (2040 <set_color_yellow_indication+0x34>)
    202c:	f7ff f818 	bl	1060 <i2c_master_write_packet_wait>
    2030:	2800      	cmp	r0, #0
    2032:	d1f9      	bne.n	2028 <set_color_yellow_indication+0x1c>
	STATUS_OK) {
	}
}
    2034:	bd73      	pop	{r0, r1, r4, r5, r6, pc}
    2036:	46c0      	nop			; (mov r8, r8)
    2038:	0000253c 	.word	0x0000253c
    203c:	20000014 	.word	0x20000014
    2040:	2000021c 	.word	0x2000021c

00002044 <set_battery_low_routine>:
  while ((i2c_master_write_packet_wait(&i2c_master_instance,
                                       &packet)) != STATUS_OK) {
  }
}

void set_battery_low_routine(void) {
    2044:	b5f0      	push	{r4, r5, r6, r7, lr}

  uint8_t buffer_set_color_red_PWM[DATA_LENGTH_PRIMARY]				= BUFFER_SET_COLOR_RED_PWM;
    2046:	4c21      	ldr	r4, [pc, #132]	; (20cc <set_battery_low_routine+0x88>)
    2048:	2502      	movs	r5, #2
    204a:	0021      	movs	r1, r4
void set_battery_low_routine(void) {
    204c:	b085      	sub	sp, #20
  uint8_t buffer_set_color_red_PWM[DATA_LENGTH_PRIMARY]				= BUFFER_SET_COLOR_RED_PWM;
    204e:	3114      	adds	r1, #20
    2050:	002a      	movs	r2, r5
    2052:	4668      	mov	r0, sp
    2054:	f000 fa20 	bl	2498 <memcpy>
  uint8_t buffer_set_low_routine_flash_period[DATA_LENGTH_PRIMARY]	= BUFFER_SET_LOW_ROUTINE_FLASH_PERIOD;
    2058:	0021      	movs	r1, r4
    205a:	af01      	add	r7, sp, #4
    205c:	3116      	adds	r1, #22
    205e:	002a      	movs	r2, r5
    2060:	0038      	movs	r0, r7
    2062:	f000 fa19 	bl	2498 <memcpy>
  uint8_t buffer_set_low_routine_trise_tfall[DATA_LENGTH_PRIMARY]	= BUFFER_SET_LOW_ROUTINE_TRISE_TFALL;
    2066:	0021      	movs	r1, r4
    2068:	002a      	movs	r2, r5
    206a:	3118      	adds	r1, #24
    206c:	a802      	add	r0, sp, #8
    206e:	f000 fa13 	bl	2498 <memcpy>
  uint8_t buffer_set_low_routine_brightness[DATA_LENGTH_PRIMARY]	= BUFFER_SET_COLOR_RED_BRIGHTNESS;
    2072:	0021      	movs	r1, r4
    2074:	ae03      	add	r6, sp, #12
    2076:	311a      	adds	r1, #26
    2078:	002a      	movs	r2, r5
    207a:	0030      	movs	r0, r6
    207c:	f000 fa0c 	bl	2498 <memcpy>

  packet.address = KTD2026_DEVICE_ADDRESS;
    2080:	2331      	movs	r3, #49	; 0x31
    2082:	4c13      	ldr	r4, [pc, #76]	; (20d0 <set_battery_low_routine+0x8c>)
    2084:	8023      	strh	r3, [r4, #0]
  packet.data_length = DATA_LENGTH_PRIMARY;

  packet.data = buffer_set_color_red_PWM;
    2086:	466b      	mov	r3, sp
  packet.data_length = DATA_LENGTH_PRIMARY;
    2088:	8065      	strh	r5, [r4, #2]
  packet.data = buffer_set_color_red_PWM;
    208a:	6063      	str	r3, [r4, #4]
  while ((i2c_master_write_packet_wait(&i2c_master_instance, &packet)) !=
    208c:	4d11      	ldr	r5, [pc, #68]	; (20d4 <set_battery_low_routine+0x90>)
    208e:	0021      	movs	r1, r4
    2090:	0028      	movs	r0, r5
    2092:	f7fe ffe5 	bl	1060 <i2c_master_write_packet_wait>
    2096:	2800      	cmp	r0, #0
    2098:	d1f8      	bne.n	208c <set_battery_low_routine+0x48>
         STATUS_OK) {
  }
  packet.data = buffer_set_low_routine_flash_period;
    209a:	6067      	str	r7, [r4, #4]
  while ((i2c_master_write_packet_wait(&i2c_master_instance, &packet)) !=
    209c:	0021      	movs	r1, r4
    209e:	0028      	movs	r0, r5
    20a0:	f7fe ffde 	bl	1060 <i2c_master_write_packet_wait>
    20a4:	2800      	cmp	r0, #0
    20a6:	d1f9      	bne.n	209c <set_battery_low_routine+0x58>
         STATUS_OK) {
  }
  packet.data = buffer_set_low_routine_brightness;
    20a8:	6066      	str	r6, [r4, #4]
  while ((i2c_master_write_packet_wait(&i2c_master_instance,
    20aa:	0021      	movs	r1, r4
    20ac:	0028      	movs	r0, r5
    20ae:	f7fe ffd7 	bl	1060 <i2c_master_write_packet_wait>
    20b2:	2800      	cmp	r0, #0
    20b4:	d1f9      	bne.n	20aa <set_battery_low_routine+0x66>
                                       &packet)) != STATUS_OK) {
  }

	packet.data = buffer_set_low_routine_trise_tfall;
    20b6:	ab02      	add	r3, sp, #8
    20b8:	6063      	str	r3, [r4, #4]
	while ((i2c_master_write_packet_wait(&i2c_master_instance,
    20ba:	0021      	movs	r1, r4
    20bc:	0028      	movs	r0, r5
    20be:	f7fe ffcf 	bl	1060 <i2c_master_write_packet_wait>
    20c2:	2800      	cmp	r0, #0
    20c4:	d1f9      	bne.n	20ba <set_battery_low_routine+0x76>
	&packet)) != STATUS_OK) {
	}
}
    20c6:	b005      	add	sp, #20
    20c8:	bdf0      	pop	{r4, r5, r6, r7, pc}
    20ca:	46c0      	nop			; (mov r8, r8)
    20cc:	0000253c 	.word	0x0000253c
    20d0:	20000014 	.word	0x20000014
    20d4:	2000021c 	.word	0x2000021c

000020d8 <set_motor_speed_1_indication>:





void set_motor_speed_1_indication(void){
    20d8:	b573      	push	{r0, r1, r4, r5, r6, lr}

  uint8_t buffer_set_blue[DATA_LENGTH_PRIMARY] = BUFFER_SET_COLOR_BLUE_PWM;
    20da:	4c12      	ldr	r4, [pc, #72]	; (2124 <set_motor_speed_1_indication+0x4c>)
    20dc:	2502      	movs	r5, #2
    20de:	0021      	movs	r1, r4
    20e0:	002a      	movs	r2, r5
    20e2:	311c      	adds	r1, #28
    20e4:	4668      	mov	r0, sp
    20e6:	f000 f9d7 	bl	2498 <memcpy>
  uint8_t buffer_set_blue_lowest_brightness[DATA_LENGTH_PRIMARY] = BUFFER_SET_COLOR_BLUE_LOWEST_BRIGTHNESS;
    20ea:	0021      	movs	r1, r4
    20ec:	ae01      	add	r6, sp, #4
    20ee:	311e      	adds	r1, #30
    20f0:	002a      	movs	r2, r5
    20f2:	0030      	movs	r0, r6
    20f4:	f000 f9d0 	bl	2498 <memcpy>

  packet.address = KTD2026_DEVICE_ADDRESS;
    20f8:	2331      	movs	r3, #49	; 0x31
    20fa:	4c0b      	ldr	r4, [pc, #44]	; (2128 <set_motor_speed_1_indication+0x50>)
    20fc:	8023      	strh	r3, [r4, #0]
  packet.data_length = DATA_LENGTH_PRIMARY;
  
  packet.data = buffer_set_blue;
    20fe:	466b      	mov	r3, sp
  packet.data_length = DATA_LENGTH_PRIMARY;
    2100:	8065      	strh	r5, [r4, #2]
  packet.data = buffer_set_blue;
    2102:	6063      	str	r3, [r4, #4]
  while ((i2c_master_write_packet_wait(&i2c_master_instance,
    2104:	4d09      	ldr	r5, [pc, #36]	; (212c <set_motor_speed_1_indication+0x54>)
    2106:	0021      	movs	r1, r4
    2108:	0028      	movs	r0, r5
    210a:	f7fe ffa9 	bl	1060 <i2c_master_write_packet_wait>
    210e:	2800      	cmp	r0, #0
    2110:	d1f8      	bne.n	2104 <set_motor_speed_1_indication+0x2c>
  &packet)) != STATUS_OK) {
  }

  packet.data = buffer_set_blue_lowest_brightness;
    2112:	6066      	str	r6, [r4, #4]
  while ((i2c_master_write_packet_wait(&i2c_master_instance,
    2114:	0021      	movs	r1, r4
    2116:	0028      	movs	r0, r5
    2118:	f7fe ffa2 	bl	1060 <i2c_master_write_packet_wait>
    211c:	2800      	cmp	r0, #0
    211e:	d1f9      	bne.n	2114 <set_motor_speed_1_indication+0x3c>
  &packet)) != STATUS_OK) {
  }

}
    2120:	bd73      	pop	{r0, r1, r4, r5, r6, pc}
    2122:	46c0      	nop			; (mov r8, r8)
    2124:	0000253c 	.word	0x0000253c
    2128:	20000014 	.word	0x20000014
    212c:	2000021c 	.word	0x2000021c

00002130 <set_motor_speed_2_indication>:

void set_motor_speed_2_indication(void){
    2130:	b573      	push	{r0, r1, r4, r5, r6, lr}

	uint8_t buffer_set_blue[DATA_LENGTH_PRIMARY] = BUFFER_SET_COLOR_BLUE_PWM;
    2132:	4c12      	ldr	r4, [pc, #72]	; (217c <set_motor_speed_2_indication+0x4c>)
    2134:	2502      	movs	r5, #2
    2136:	0021      	movs	r1, r4
    2138:	002a      	movs	r2, r5
    213a:	311c      	adds	r1, #28
    213c:	4668      	mov	r0, sp
    213e:	f000 f9ab 	bl	2498 <memcpy>
	uint8_t buffer_set_blue_low_brightness[DATA_LENGTH_PRIMARY] = BUFFER_SET_COLOR_BLUE_LOW_BRIGTHNESS;
    2142:	0021      	movs	r1, r4
    2144:	ae01      	add	r6, sp, #4
    2146:	3120      	adds	r1, #32
    2148:	002a      	movs	r2, r5
    214a:	0030      	movs	r0, r6
    214c:	f000 f9a4 	bl	2498 <memcpy>

	packet.address = KTD2026_DEVICE_ADDRESS;
    2150:	2331      	movs	r3, #49	; 0x31
    2152:	4c0b      	ldr	r4, [pc, #44]	; (2180 <set_motor_speed_2_indication+0x50>)
    2154:	8023      	strh	r3, [r4, #0]
	packet.data_length = DATA_LENGTH_PRIMARY;

	packet.data = buffer_set_blue;
    2156:	466b      	mov	r3, sp
	packet.data_length = DATA_LENGTH_PRIMARY;
    2158:	8065      	strh	r5, [r4, #2]
	packet.data = buffer_set_blue;
    215a:	6063      	str	r3, [r4, #4]
	while ((i2c_master_write_packet_wait(&i2c_master_instance,
    215c:	4d09      	ldr	r5, [pc, #36]	; (2184 <set_motor_speed_2_indication+0x54>)
    215e:	0021      	movs	r1, r4
    2160:	0028      	movs	r0, r5
    2162:	f7fe ff7d 	bl	1060 <i2c_master_write_packet_wait>
    2166:	2800      	cmp	r0, #0
    2168:	d1f8      	bne.n	215c <set_motor_speed_2_indication+0x2c>
	&packet)) != STATUS_OK) {
	}

	packet.data = buffer_set_blue_low_brightness;
    216a:	6066      	str	r6, [r4, #4]
	while ((i2c_master_write_packet_wait(&i2c_master_instance,
    216c:	0021      	movs	r1, r4
    216e:	0028      	movs	r0, r5
    2170:	f7fe ff76 	bl	1060 <i2c_master_write_packet_wait>
    2174:	2800      	cmp	r0, #0
    2176:	d1f9      	bne.n	216c <set_motor_speed_2_indication+0x3c>
	&packet)) != STATUS_OK) {
	}

}
    2178:	bd73      	pop	{r0, r1, r4, r5, r6, pc}
    217a:	46c0      	nop			; (mov r8, r8)
    217c:	0000253c 	.word	0x0000253c
    2180:	20000014 	.word	0x20000014
    2184:	2000021c 	.word	0x2000021c

00002188 <set_motor_speed_3_indication>:

void set_motor_speed_3_indication(void){
    2188:	b573      	push	{r0, r1, r4, r5, r6, lr}
	uint8_t buffer_set_blue[DATA_LENGTH_PRIMARY] = BUFFER_SET_COLOR_BLUE_PWM;
    218a:	4c12      	ldr	r4, [pc, #72]	; (21d4 <set_motor_speed_3_indication+0x4c>)
    218c:	2502      	movs	r5, #2
    218e:	0021      	movs	r1, r4
    2190:	002a      	movs	r2, r5
    2192:	311c      	adds	r1, #28
    2194:	4668      	mov	r0, sp
    2196:	f000 f97f 	bl	2498 <memcpy>
	uint8_t buffer_set_blue_high_brightness[DATA_LENGTH_PRIMARY] = BUFFER_SET_COLOR_BLUE_HIGH_BRIGTHNESS;
    219a:	0021      	movs	r1, r4
    219c:	ae01      	add	r6, sp, #4
    219e:	3122      	adds	r1, #34	; 0x22
    21a0:	002a      	movs	r2, r5
    21a2:	0030      	movs	r0, r6
    21a4:	f000 f978 	bl	2498 <memcpy>

	packet.address = KTD2026_DEVICE_ADDRESS;
    21a8:	2331      	movs	r3, #49	; 0x31
    21aa:	4c0b      	ldr	r4, [pc, #44]	; (21d8 <set_motor_speed_3_indication+0x50>)
    21ac:	8023      	strh	r3, [r4, #0]
	packet.data_length = DATA_LENGTH_PRIMARY;

	packet.data = buffer_set_blue;
    21ae:	466b      	mov	r3, sp
	packet.data_length = DATA_LENGTH_PRIMARY;
    21b0:	8065      	strh	r5, [r4, #2]
	packet.data = buffer_set_blue;
    21b2:	6063      	str	r3, [r4, #4]
	while ((i2c_master_write_packet_wait(&i2c_master_instance,
    21b4:	4d09      	ldr	r5, [pc, #36]	; (21dc <set_motor_speed_3_indication+0x54>)
    21b6:	0021      	movs	r1, r4
    21b8:	0028      	movs	r0, r5
    21ba:	f7fe ff51 	bl	1060 <i2c_master_write_packet_wait>
    21be:	2800      	cmp	r0, #0
    21c0:	d1f8      	bne.n	21b4 <set_motor_speed_3_indication+0x2c>
	&packet)) != STATUS_OK) {
	}

	packet.data = buffer_set_blue_high_brightness;
    21c2:	6066      	str	r6, [r4, #4]
	while ((i2c_master_write_packet_wait(&i2c_master_instance,
    21c4:	0021      	movs	r1, r4
    21c6:	0028      	movs	r0, r5
    21c8:	f7fe ff4a 	bl	1060 <i2c_master_write_packet_wait>
    21cc:	2800      	cmp	r0, #0
    21ce:	d1f9      	bne.n	21c4 <set_motor_speed_3_indication+0x3c>
	&packet)) != STATUS_OK) {
	}
}
    21d0:	bd73      	pop	{r0, r1, r4, r5, r6, pc}
    21d2:	46c0      	nop			; (mov r8, r8)
    21d4:	0000253c 	.word	0x0000253c
    21d8:	20000014 	.word	0x20000014
    21dc:	2000021c 	.word	0x2000021c

000021e0 <set_motor_pulsating_indication>:

void set_motor_pulsating_indication(void){
    21e0:	b5f0      	push	{r4, r5, r6, r7, lr}
	uint8_t buffer_set_blue[DATA_LENGTH_PRIMARY] = BUFFER_SET_COLOR_BLUE_PWM;
    21e2:	4c21      	ldr	r4, [pc, #132]	; (2268 <set_motor_pulsating_indication+0x88>)
    21e4:	2502      	movs	r5, #2
    21e6:	0021      	movs	r1, r4
void set_motor_pulsating_indication(void){
    21e8:	b085      	sub	sp, #20
	uint8_t buffer_set_blue[DATA_LENGTH_PRIMARY] = BUFFER_SET_COLOR_BLUE_PWM;
    21ea:	311c      	adds	r1, #28
    21ec:	002a      	movs	r2, r5
    21ee:	4668      	mov	r0, sp
    21f0:	f000 f952 	bl	2498 <memcpy>
	uint8_t buffer_set_blue_high_brightness[DATA_LENGTH_PRIMARY] = BUFFER_SET_COLOR_BLUE_HIGH_BRIGTHNESS;
    21f4:	0021      	movs	r1, r4
    21f6:	af01      	add	r7, sp, #4
    21f8:	3122      	adds	r1, #34	; 0x22
    21fa:	002a      	movs	r2, r5
    21fc:	0038      	movs	r0, r7
    21fe:	f000 f94b 	bl	2498 <memcpy>
	uint8_t buffer_set_blue_pwm_timer[DATA_LENGTH_PRIMARY] = BUFFER_SET_COLOR_BLUE_PWM_TIMER;
    2202:	0021      	movs	r1, r4
    2204:	ae02      	add	r6, sp, #8
    2206:	3124      	adds	r1, #36	; 0x24
    2208:	002a      	movs	r2, r5
    220a:	0030      	movs	r0, r6
    220c:	f000 f944 	bl	2498 <memcpy>
	uint8_t buffer_set_blue_pwm_flash[DATA_LENGTH_PRIMARY] = BUFFER_SET_COLOR_BLUE_PWM_FLASH;
    2210:	0021      	movs	r1, r4
    2212:	002a      	movs	r2, r5
    2214:	3116      	adds	r1, #22
    2216:	a803      	add	r0, sp, #12
    2218:	f000 f93e 	bl	2498 <memcpy>


	packet.address = KTD2026_DEVICE_ADDRESS;
    221c:	2331      	movs	r3, #49	; 0x31
    221e:	4c13      	ldr	r4, [pc, #76]	; (226c <set_motor_pulsating_indication+0x8c>)
    2220:	8023      	strh	r3, [r4, #0]
	packet.data_length = DATA_LENGTH_PRIMARY;

	packet.data = buffer_set_blue;
    2222:	466b      	mov	r3, sp
	packet.data_length = DATA_LENGTH_PRIMARY;
    2224:	8065      	strh	r5, [r4, #2]
	packet.data = buffer_set_blue;
    2226:	6063      	str	r3, [r4, #4]
	while ((i2c_master_write_packet_wait(&i2c_master_instance,
    2228:	4d11      	ldr	r5, [pc, #68]	; (2270 <set_motor_pulsating_indication+0x90>)
    222a:	0021      	movs	r1, r4
    222c:	0028      	movs	r0, r5
    222e:	f7fe ff17 	bl	1060 <i2c_master_write_packet_wait>
    2232:	2800      	cmp	r0, #0
    2234:	d1f8      	bne.n	2228 <set_motor_pulsating_indication+0x48>
	&packet)) != STATUS_OK) {
	}

	packet.data = buffer_set_blue_high_brightness;
    2236:	6067      	str	r7, [r4, #4]
	while ((i2c_master_write_packet_wait(&i2c_master_instance,
    2238:	0021      	movs	r1, r4
    223a:	0028      	movs	r0, r5
    223c:	f7fe ff10 	bl	1060 <i2c_master_write_packet_wait>
    2240:	2800      	cmp	r0, #0
    2242:	d1f9      	bne.n	2238 <set_motor_pulsating_indication+0x58>
	&packet)) != STATUS_OK) {
	}

	packet.data = buffer_set_blue_pwm_timer;
    2244:	6066      	str	r6, [r4, #4]
	while ((i2c_master_write_packet_wait(&i2c_master_instance,
    2246:	0021      	movs	r1, r4
    2248:	0028      	movs	r0, r5
    224a:	f7fe ff09 	bl	1060 <i2c_master_write_packet_wait>
    224e:	2800      	cmp	r0, #0
    2250:	d1f9      	bne.n	2246 <set_motor_pulsating_indication+0x66>
	&packet)) != STATUS_OK) {
	}
	
	packet.data = buffer_set_blue_pwm_flash;
    2252:	ab03      	add	r3, sp, #12
    2254:	6063      	str	r3, [r4, #4]
	while ((i2c_master_write_packet_wait(&i2c_master_instance,
    2256:	0021      	movs	r1, r4
    2258:	0028      	movs	r0, r5
    225a:	f7fe ff01 	bl	1060 <i2c_master_write_packet_wait>
    225e:	2800      	cmp	r0, #0
    2260:	d1f9      	bne.n	2256 <set_motor_pulsating_indication+0x76>
	&packet)) != STATUS_OK) {
	}

}
    2262:	b005      	add	sp, #20
    2264:	bdf0      	pop	{r4, r5, r6, r7, pc}
    2266:	46c0      	nop			; (mov r8, r8)
    2268:	0000253c 	.word	0x0000253c
    226c:	20000014 	.word	0x20000014
    2270:	2000021c 	.word	0x2000021c

00002274 <i2c_master_setup>:
	config->baud_rate_high_speed = I2C_MASTER_BAUD_RATE_3400KHZ;
	config->transfer_speed       = I2C_MASTER_SPEED_STANDARD_AND_FAST;
#endif
	config->generator_source = GCLK_GENERATOR_0;
	config->run_in_standby   = false;
	config->start_hold_time  = I2C_MASTER_START_HOLD_TIME_300NS_600NS;
    2274:	2180      	movs	r1, #128	; 0x80
	config->baud_rate        = I2C_MASTER_BAUD_RATE_100KHZ;
    2276:	2364      	movs	r3, #100	; 0x64


void i2c_master_setup(void) {
    2278:	b570      	push	{r4, r5, r6, lr}
    227a:	b08e      	sub	sp, #56	; 0x38
    227c:	aa01      	add	r2, sp, #4
	config->start_hold_time  = I2C_MASTER_START_HOLD_TIME_300NS_600NS;
    227e:	0389      	lsls	r1, r1, #14
    2280:	6111      	str	r1, [r2, #16]
	config->buffer_timeout   = 65535;
	config->unknown_bus_state_timeout = 65535;
    2282:	2101      	movs	r1, #1
	config->baud_rate        = I2C_MASTER_BAUD_RATE_100KHZ;
    2284:	9301      	str	r3, [sp, #4]
	config->baud_rate_high_speed = I2C_MASTER_BAUD_RATE_3400KHZ;
    2286:	4b1e      	ldr	r3, [pc, #120]	; (2300 <i2c_master_setup+0x8c>)
	config->unknown_bus_state_timeout = 65535;
    2288:	4249      	negs	r1, r1
	config->baud_rate_high_speed = I2C_MASTER_BAUD_RATE_3400KHZ;
    228a:	6053      	str	r3, [r2, #4]
	config->transfer_speed       = I2C_MASTER_SPEED_STANDARD_AND_FAST;
    228c:	2300      	movs	r3, #0
	config->unknown_bus_state_timeout = 65535;
    228e:	8291      	strh	r1, [r2, #20]
	config->pinmux_pad0      = PINMUX_DEFAULT;
	config->pinmux_pad1      = PINMUX_DEFAULT;
	config->scl_low_timeout  = false;
    2290:	310a      	adds	r1, #10
    2292:	4469      	add	r1, sp
    2294:	77cb      	strb	r3, [r1, #31]
	config->inactive_timeout = I2C_MASTER_INACTIVE_TIMEOUT_DISABLED;
#ifdef FEATURE_I2C_SCL_STRETCH_MODE
	config->scl_stretch_only_after_ack_bit = false;
    2296:	a90c      	add	r1, sp, #48	; 0x30
    2298:	700b      	strb	r3, [r1, #0]
#endif
#ifdef FEATURE_I2C_SCL_EXTEND_TIMEOUT
	config->slave_scl_low_extend_timeout   = false;
    229a:	2131      	movs	r1, #49	; 0x31
    229c:	4469      	add	r1, sp
    229e:	700b      	strb	r3, [r1, #0]
	config->master_scl_low_extend_timeout  = false;
    22a0:	2132      	movs	r1, #50	; 0x32
    22a2:	4469      	add	r1, sp
	config->transfer_speed       = I2C_MASTER_SPEED_STANDARD_AND_FAST;
    22a4:	6093      	str	r3, [r2, #8]
	config->generator_source = GCLK_GENERATOR_0;
    22a6:	7313      	strb	r3, [r2, #12]
	config->run_in_standby   = false;
    22a8:	7613      	strb	r3, [r2, #24]
	config->pinmux_pad0      = PINMUX_DEFAULT;
    22aa:	61d3      	str	r3, [r2, #28]
	config->pinmux_pad1      = PINMUX_DEFAULT;
    22ac:	6213      	str	r3, [r2, #32]
	config->inactive_timeout = I2C_MASTER_INACTIVE_TIMEOUT_DISABLED;
    22ae:	6293      	str	r3, [r2, #40]	; 0x28
	config->master_scl_low_extend_timeout  = false;
    22b0:	700b      	strb	r3, [r1, #0]
  struct i2c_master_config config_i2c_master;
  i2c_master_get_config_defaults(&config_i2c_master);
  config_i2c_master.buffer_timeout = 10000;
  i2c_master_init(&i2c_master_instance, MASTER_MODULE, &config_i2c_master);
    22b2:	4e14      	ldr	r6, [pc, #80]	; (2304 <i2c_master_setup+0x90>)
#endif
	/* The typical value is 215ns */
	config->sda_scl_rise_time_ns = 215;
    22b4:	33d7      	adds	r3, #215	; 0xd7
    22b6:	8613      	strh	r3, [r2, #48]	; 0x30
  config_i2c_master.buffer_timeout = 10000;
    22b8:	4b13      	ldr	r3, [pc, #76]	; (2308 <i2c_master_setup+0x94>)
  i2c_master_init(&i2c_master_instance, MASTER_MODULE, &config_i2c_master);
    22ba:	4914      	ldr	r1, [pc, #80]	; (230c <i2c_master_setup+0x98>)
    22bc:	0030      	movs	r0, r6
  config_i2c_master.buffer_timeout = 10000;
    22be:	82d3      	strh	r3, [r2, #22]
  i2c_master_init(&i2c_master_instance, MASTER_MODULE, &config_i2c_master);
    22c0:	f7fe fd6c 	bl	d9c <i2c_master_init>
	return (i2c_hw->SYNCBUSY.reg & SERCOM_I2CM_SYNCBUSY_MASK);
    22c4:	2207      	movs	r2, #7
{
	/* Sanity check of arguments */
	Assert(module);
	Assert(module->hw);

	SercomI2cm *const i2c_module = &(module->hw->I2CM);
    22c6:	6835      	ldr	r5, [r6, #0]
	return (i2c_hw->SYNCBUSY.reg & SERCOM_I2CM_SYNCBUSY_MASK);
    22c8:	69ec      	ldr	r4, [r5, #28]
    22ca:	4014      	ands	r4, r2
	while (i2c_master_is_syncing(module)) {
    22cc:	d1fc      	bne.n	22c8 <i2c_master_setup+0x54>

	/* Wait for module to sync */
	_i2c_master_wait_for_sync(module);

	/* Enable module */
	i2c_module->CTRLA.reg |= SERCOM_I2CM_CTRLA_ENABLE;
    22ce:	2302      	movs	r3, #2
    22d0:	682a      	ldr	r2, [r5, #0]
    22d2:	4313      	orrs	r3, r2
    22d4:	602b      	str	r3, [r5, #0]

#if I2C_MASTER_CALLBACK_MODE == true
	/* Enable module interrupts */
	system_interrupt_enable(_sercom_get_interrupt_vector(module->hw));
    22d6:	6830      	ldr	r0, [r6, #0]
    22d8:	f7ff f89a 	bl	1410 <_sercom_get_interrupt_vector>
	NVIC->ISER[0] = (uint32_t)(1 << ((uint32_t)vector & 0x0000001f));
    22dc:	231f      	movs	r3, #31
    22de:	4018      	ands	r0, r3
    22e0:	3b1e      	subs	r3, #30
    22e2:	4083      	lsls	r3, r0
    22e4:	4a0a      	ldr	r2, [pc, #40]	; (2310 <i2c_master_setup+0x9c>)
    22e6:	6013      	str	r3, [r2, #0]
#endif
	/* Start timeout if bus state is unknown */
	while (!(i2c_module->STATUS.reg & SERCOM_I2CM_STATUS_BUSSTATE(1))) {
    22e8:	2210      	movs	r2, #16
		timeout_counter++;
		if(timeout_counter >= (module->unknown_bus_state_timeout)) {
    22ea:	88f0      	ldrh	r0, [r6, #6]
	while (!(i2c_module->STATUS.reg & SERCOM_I2CM_STATUS_BUSSTATE(1))) {
    22ec:	8b69      	ldrh	r1, [r5, #26]
    22ee:	4211      	tst	r1, r2
    22f0:	d103      	bne.n	22fa <i2c_master_setup+0x86>
		timeout_counter++;
    22f2:	3401      	adds	r4, #1
		if(timeout_counter >= (module->unknown_bus_state_timeout)) {
    22f4:	4284      	cmp	r4, r0
    22f6:	d3f9      	bcc.n	22ec <i2c_master_setup+0x78>
			/* Timeout, force bus state to idle */
			i2c_module->STATUS.reg = SERCOM_I2CM_STATUS_BUSSTATE(1);
    22f8:	836a      	strh	r2, [r5, #26]
  i2c_master_enable(&i2c_master_instance);
}
    22fa:	b00e      	add	sp, #56	; 0x38
    22fc:	bd70      	pop	{r4, r5, r6, pc}
    22fe:	46c0      	nop			; (mov r8, r8)
    2300:	00000d48 	.word	0x00000d48
    2304:	2000021c 	.word	0x2000021c
    2308:	00002710 	.word	0x00002710
    230c:	42001000 	.word	0x42001000
    2310:	e000e100 	.word	0xe000e100

00002314 <main>:
#include "system_logic.h"

#include "adc_sample.h"


int main(void) {
    2314:	b510      	push	{r4, lr}
  startup_sys_configs();
    2316:	f7fe fc9b 	bl	c50 <startup_sys_configs>
  while (true) {
    system_state();						// Get latest system_state
    231a:	f7fe fcf3 	bl	d04 <system_state>
    system_logic();						// Invoke System Logic
    231e:	f7fe fb91 	bl	a44 <system_logic>
    2322:	e7fa      	b.n	231a <main+0x6>

00002324 <__gnu_thumb1_case_uqi>:
    2324:	b402      	push	{r1}
    2326:	4671      	mov	r1, lr
    2328:	0849      	lsrs	r1, r1, #1
    232a:	0049      	lsls	r1, r1, #1
    232c:	5c09      	ldrb	r1, [r1, r0]
    232e:	0049      	lsls	r1, r1, #1
    2330:	448e      	add	lr, r1
    2332:	bc02      	pop	{r1}
    2334:	4770      	bx	lr
    2336:	46c0      	nop			; (mov r8, r8)

00002338 <__udivsi3>:
    2338:	2200      	movs	r2, #0
    233a:	0843      	lsrs	r3, r0, #1
    233c:	428b      	cmp	r3, r1
    233e:	d374      	bcc.n	242a <__udivsi3+0xf2>
    2340:	0903      	lsrs	r3, r0, #4
    2342:	428b      	cmp	r3, r1
    2344:	d35f      	bcc.n	2406 <__udivsi3+0xce>
    2346:	0a03      	lsrs	r3, r0, #8
    2348:	428b      	cmp	r3, r1
    234a:	d344      	bcc.n	23d6 <__udivsi3+0x9e>
    234c:	0b03      	lsrs	r3, r0, #12
    234e:	428b      	cmp	r3, r1
    2350:	d328      	bcc.n	23a4 <__udivsi3+0x6c>
    2352:	0c03      	lsrs	r3, r0, #16
    2354:	428b      	cmp	r3, r1
    2356:	d30d      	bcc.n	2374 <__udivsi3+0x3c>
    2358:	22ff      	movs	r2, #255	; 0xff
    235a:	0209      	lsls	r1, r1, #8
    235c:	ba12      	rev	r2, r2
    235e:	0c03      	lsrs	r3, r0, #16
    2360:	428b      	cmp	r3, r1
    2362:	d302      	bcc.n	236a <__udivsi3+0x32>
    2364:	1212      	asrs	r2, r2, #8
    2366:	0209      	lsls	r1, r1, #8
    2368:	d065      	beq.n	2436 <__udivsi3+0xfe>
    236a:	0b03      	lsrs	r3, r0, #12
    236c:	428b      	cmp	r3, r1
    236e:	d319      	bcc.n	23a4 <__udivsi3+0x6c>
    2370:	e000      	b.n	2374 <__udivsi3+0x3c>
    2372:	0a09      	lsrs	r1, r1, #8
    2374:	0bc3      	lsrs	r3, r0, #15
    2376:	428b      	cmp	r3, r1
    2378:	d301      	bcc.n	237e <__udivsi3+0x46>
    237a:	03cb      	lsls	r3, r1, #15
    237c:	1ac0      	subs	r0, r0, r3
    237e:	4152      	adcs	r2, r2
    2380:	0b83      	lsrs	r3, r0, #14
    2382:	428b      	cmp	r3, r1
    2384:	d301      	bcc.n	238a <__udivsi3+0x52>
    2386:	038b      	lsls	r3, r1, #14
    2388:	1ac0      	subs	r0, r0, r3
    238a:	4152      	adcs	r2, r2
    238c:	0b43      	lsrs	r3, r0, #13
    238e:	428b      	cmp	r3, r1
    2390:	d301      	bcc.n	2396 <__udivsi3+0x5e>
    2392:	034b      	lsls	r3, r1, #13
    2394:	1ac0      	subs	r0, r0, r3
    2396:	4152      	adcs	r2, r2
    2398:	0b03      	lsrs	r3, r0, #12
    239a:	428b      	cmp	r3, r1
    239c:	d301      	bcc.n	23a2 <__udivsi3+0x6a>
    239e:	030b      	lsls	r3, r1, #12
    23a0:	1ac0      	subs	r0, r0, r3
    23a2:	4152      	adcs	r2, r2
    23a4:	0ac3      	lsrs	r3, r0, #11
    23a6:	428b      	cmp	r3, r1
    23a8:	d301      	bcc.n	23ae <__udivsi3+0x76>
    23aa:	02cb      	lsls	r3, r1, #11
    23ac:	1ac0      	subs	r0, r0, r3
    23ae:	4152      	adcs	r2, r2
    23b0:	0a83      	lsrs	r3, r0, #10
    23b2:	428b      	cmp	r3, r1
    23b4:	d301      	bcc.n	23ba <__udivsi3+0x82>
    23b6:	028b      	lsls	r3, r1, #10
    23b8:	1ac0      	subs	r0, r0, r3
    23ba:	4152      	adcs	r2, r2
    23bc:	0a43      	lsrs	r3, r0, #9
    23be:	428b      	cmp	r3, r1
    23c0:	d301      	bcc.n	23c6 <__udivsi3+0x8e>
    23c2:	024b      	lsls	r3, r1, #9
    23c4:	1ac0      	subs	r0, r0, r3
    23c6:	4152      	adcs	r2, r2
    23c8:	0a03      	lsrs	r3, r0, #8
    23ca:	428b      	cmp	r3, r1
    23cc:	d301      	bcc.n	23d2 <__udivsi3+0x9a>
    23ce:	020b      	lsls	r3, r1, #8
    23d0:	1ac0      	subs	r0, r0, r3
    23d2:	4152      	adcs	r2, r2
    23d4:	d2cd      	bcs.n	2372 <__udivsi3+0x3a>
    23d6:	09c3      	lsrs	r3, r0, #7
    23d8:	428b      	cmp	r3, r1
    23da:	d301      	bcc.n	23e0 <__udivsi3+0xa8>
    23dc:	01cb      	lsls	r3, r1, #7
    23de:	1ac0      	subs	r0, r0, r3
    23e0:	4152      	adcs	r2, r2
    23e2:	0983      	lsrs	r3, r0, #6
    23e4:	428b      	cmp	r3, r1
    23e6:	d301      	bcc.n	23ec <__udivsi3+0xb4>
    23e8:	018b      	lsls	r3, r1, #6
    23ea:	1ac0      	subs	r0, r0, r3
    23ec:	4152      	adcs	r2, r2
    23ee:	0943      	lsrs	r3, r0, #5
    23f0:	428b      	cmp	r3, r1
    23f2:	d301      	bcc.n	23f8 <__udivsi3+0xc0>
    23f4:	014b      	lsls	r3, r1, #5
    23f6:	1ac0      	subs	r0, r0, r3
    23f8:	4152      	adcs	r2, r2
    23fa:	0903      	lsrs	r3, r0, #4
    23fc:	428b      	cmp	r3, r1
    23fe:	d301      	bcc.n	2404 <__udivsi3+0xcc>
    2400:	010b      	lsls	r3, r1, #4
    2402:	1ac0      	subs	r0, r0, r3
    2404:	4152      	adcs	r2, r2
    2406:	08c3      	lsrs	r3, r0, #3
    2408:	428b      	cmp	r3, r1
    240a:	d301      	bcc.n	2410 <__udivsi3+0xd8>
    240c:	00cb      	lsls	r3, r1, #3
    240e:	1ac0      	subs	r0, r0, r3
    2410:	4152      	adcs	r2, r2
    2412:	0883      	lsrs	r3, r0, #2
    2414:	428b      	cmp	r3, r1
    2416:	d301      	bcc.n	241c <__udivsi3+0xe4>
    2418:	008b      	lsls	r3, r1, #2
    241a:	1ac0      	subs	r0, r0, r3
    241c:	4152      	adcs	r2, r2
    241e:	0843      	lsrs	r3, r0, #1
    2420:	428b      	cmp	r3, r1
    2422:	d301      	bcc.n	2428 <__udivsi3+0xf0>
    2424:	004b      	lsls	r3, r1, #1
    2426:	1ac0      	subs	r0, r0, r3
    2428:	4152      	adcs	r2, r2
    242a:	1a41      	subs	r1, r0, r1
    242c:	d200      	bcs.n	2430 <__udivsi3+0xf8>
    242e:	4601      	mov	r1, r0
    2430:	4152      	adcs	r2, r2
    2432:	4610      	mov	r0, r2
    2434:	4770      	bx	lr
    2436:	e7ff      	b.n	2438 <__udivsi3+0x100>
    2438:	b501      	push	{r0, lr}
    243a:	2000      	movs	r0, #0
    243c:	f000 f806 	bl	244c <__aeabi_idiv0>
    2440:	bd02      	pop	{r1, pc}
    2442:	46c0      	nop			; (mov r8, r8)

00002444 <__aeabi_uidivmod>:
    2444:	2900      	cmp	r1, #0
    2446:	d0f7      	beq.n	2438 <__udivsi3+0x100>
    2448:	e776      	b.n	2338 <__udivsi3>
    244a:	4770      	bx	lr

0000244c <__aeabi_idiv0>:
    244c:	4770      	bx	lr
    244e:	46c0      	nop			; (mov r8, r8)

00002450 <__libc_init_array>:
    2450:	b570      	push	{r4, r5, r6, lr}
    2452:	2600      	movs	r6, #0
    2454:	4d0c      	ldr	r5, [pc, #48]	; (2488 <__libc_init_array+0x38>)
    2456:	4c0d      	ldr	r4, [pc, #52]	; (248c <__libc_init_array+0x3c>)
    2458:	1b64      	subs	r4, r4, r5
    245a:	10a4      	asrs	r4, r4, #2
    245c:	42a6      	cmp	r6, r4
    245e:	d109      	bne.n	2474 <__libc_init_array+0x24>
    2460:	2600      	movs	r6, #0
    2462:	f000 f87f 	bl	2564 <_init>
    2466:	4d0a      	ldr	r5, [pc, #40]	; (2490 <__libc_init_array+0x40>)
    2468:	4c0a      	ldr	r4, [pc, #40]	; (2494 <__libc_init_array+0x44>)
    246a:	1b64      	subs	r4, r4, r5
    246c:	10a4      	asrs	r4, r4, #2
    246e:	42a6      	cmp	r6, r4
    2470:	d105      	bne.n	247e <__libc_init_array+0x2e>
    2472:	bd70      	pop	{r4, r5, r6, pc}
    2474:	00b3      	lsls	r3, r6, #2
    2476:	58eb      	ldr	r3, [r5, r3]
    2478:	4798      	blx	r3
    247a:	3601      	adds	r6, #1
    247c:	e7ee      	b.n	245c <__libc_init_array+0xc>
    247e:	00b3      	lsls	r3, r6, #2
    2480:	58eb      	ldr	r3, [r5, r3]
    2482:	4798      	blx	r3
    2484:	3601      	adds	r6, #1
    2486:	e7f2      	b.n	246e <__libc_init_array+0x1e>
    2488:	00002570 	.word	0x00002570
    248c:	00002570 	.word	0x00002570
    2490:	00002570 	.word	0x00002570
    2494:	00002574 	.word	0x00002574

00002498 <memcpy>:
    2498:	2300      	movs	r3, #0
    249a:	b510      	push	{r4, lr}
    249c:	429a      	cmp	r2, r3
    249e:	d100      	bne.n	24a2 <memcpy+0xa>
    24a0:	bd10      	pop	{r4, pc}
    24a2:	5ccc      	ldrb	r4, [r1, r3]
    24a4:	54c4      	strb	r4, [r0, r3]
    24a6:	3301      	adds	r3, #1
    24a8:	e7f8      	b.n	249c <memcpy+0x4>
    24aa:	0000      	movs	r0, r0
    24ac:	00000002 	.word	0x00000002
    24b0:	00000003 	.word	0x00000003
    24b4:	00000004 	.word	0x00000004
    24b8:	00000005 	.word	0x00000005
    24bc:	00000006 	.word	0x00000006
    24c0:	00000007 	.word	0x00000007
    24c4:	0000000e 	.word	0x0000000e
    24c8:	0000000f 	.word	0x0000000f
    24cc:	0000000a 	.word	0x0000000a
    24d0:	0000000b 	.word	0x0000000b
    24d4:	0000ffff 	.word	0x0000ffff
    24d8:	0000ffff 	.word	0x0000ffff
    24dc:	0000ffff 	.word	0x0000ffff
    24e0:	0000ffff 	.word	0x0000ffff
    24e4:	0000ffff 	.word	0x0000ffff
    24e8:	0000ffff 	.word	0x0000ffff
    24ec:	0000ffff 	.word	0x0000ffff
    24f0:	0000ffff 	.word	0x0000ffff
    24f4:	0000ffff 	.word	0x0000ffff
    24f8:	0000ffff 	.word	0x0000ffff

000024fc <tc_interrupt_vectors.12581>:
    24fc:	00000e0d 42000800 42000c00 42001000     .......B...B...B

0000250c <_tcc_intflag>:
    250c:	00000001 00000002 00000004 00000008     ................
    251c:	00001000 00002000 00004000 00008000     ..... ...@......
    252c:	00010000 00020000 00040000 00080000     ................
    253c:	01040404 05041004 15041404 25010804     ...............%
    254c:	1c02ef05 82010204 05063202 03082004     .........2... ..
    255c:	15080908 00001902                       ........

00002564 <_init>:
    2564:	b5f8      	push	{r3, r4, r5, r6, r7, lr}
    2566:	46c0      	nop			; (mov r8, r8)
    2568:	bcf8      	pop	{r3, r4, r5, r6, r7}
    256a:	bc08      	pop	{r3}
    256c:	469e      	mov	lr, r3
    256e:	4770      	bx	lr

00002570 <__init_array_start>:
    2570:	000000b5 	.word	0x000000b5

00002574 <_fini>:
    2574:	b5f8      	push	{r3, r4, r5, r6, r7, lr}
    2576:	46c0      	nop			; (mov r8, r8)
    2578:	bcf8      	pop	{r3, r4, r5, r6, r7}
    257a:	bc08      	pop	{r3}
    257c:	469e      	mov	lr, r3
    257e:	4770      	bx	lr

00002580 <__fini_array_start>:
    2580:	0000008d 	.word	0x0000008d
